
Allocating common symbols
Common symbol       size              file

clflush_size        0x4               output.o
sReaderContext      0x60              output.o
uefi_memory_map_data
                    0x4000            output.o
current_iphdr_src   0x4               output.o
lbrbuf              0x8               output.o
uefi_booted         0x4               output.o
start_lbrpmu        0x8               output.o
sigx_app            0x8               output.o
tcp_tw_pcbs         0x8               output.o
tcp_ticks           0x4               output.o
num_dom             0x4               output.o
lbrbuf_idx          0x8               output.o
mszReaders          0x400             output.o
udp_pcbs            0x8               output.o
arr                 0x3a8af48         output.o
prohibit_iccard_init
                    0x4               output.o
tcp_tmp_pcb         0x8               output.o
tcp_listen_pcbs     0x8               output.o
pci_config_mmio_data_head
                    0x8               output.o
netif_default       0x8               output.o
tcp_active_pcbs     0x8               output.o
curthread           0x8               output.o
current_netif       0x8               output.o
tcp_bound_pcbs      0x8               output.o
ram_heap            0x100001c         output.o
sig_app             0x8               output.o
readerState         0x64              output.o
dom_io              0x800             output.o
acpi_dsdt_system_state
                    0x1e              output.o
current_header      0x8               output.o
ehci_host           0x8               output.o
lbrbuf_maxidx       0x8               output.o
tcp_active_pcbs_changed
                    0x1               output.o
tcp_input_pcb       0x8               output.o
num_of_processors   0x4               output.o
lbrbufsize          0x8               output.o
pbuf_free_ooseq_pending
                    0x1               output.o
e801_fake_bx        0x2               output.o
dhcp_rx_options_val
                    0x28              output.o
dhcp_rx_options_given
                    0xa               output.o
iommu_detected      0x1               output.o
uefi_mmio_space     0x8               output.o
dwReaders           0x8               output.o
current_iphdr_dest  0x4               output.o
readerTracker       0x140             output.o
handler_descriptor_lock
                    0x1               output.o
e801_fake_ax        0x2               output.o
netif_list          0x8               output.o

Discarded input sections

 .gomi          0x0000000000000000       0x10 output.o

Memory Configuration

Name             Origin             Length             Attributes
*default*        0x0000000000000000 0xffffffffffffffff

Linker script and memory map

                0x0000000040100000                virt = 0x40100000
                0x0000000000100000                phys = 0x100000
                0x0000000040100000                . = virt
                0x0000000040100000                head = .
                0x0000000040100078                . = (virt + SIZEOF_HEADERS)

.entry          0x0000000040101000     0x66e0 load address 0x0000000000101000
                0x0000000040101000                code = .
 *(.entry)
 .entry         0x0000000040101000     0x6000 output.o
                0x000000004010100c                entry
                0x0000000040101338                uefi_entry_virttophys
                0x0000000040101343                uefi_entry_call
                0x0000000040101383                uefi_entry_pcpy
                0x00000000401013c2                uefi_entry_start
                0x00000000401014d9                uefi_entry_rsp
                0x00000000401014e1                uefi_entry_ret_addr
                0x0000000040101580                cpuinit_start
                0x00000000401017b0                vmm_base_cr3
                0x00000000401017c8                apinit_procs
                0x00000000401017d0                apinit_lock
                0x00000000401017d8                cpuinit_end
                0x0000000040103000                entry_pdp
                0x0000000040104000                entry_pd0
                0x0000000040105000                entry_pd
 *(.entry.text)
 .entry.text    0x0000000040107000      0x5de output.o
                0x0000000040107000                uefi_init_get_vmmsize
                0x00000000401070a2                uefi_init
 *(.entry.data)
 *fill*         0x00000000401075de        0x2 
 .entry.data    0x00000000401075e0      0x100 output.o
                0x0000000040107638                uefi_disconnect_controller
                0x0000000040107640                uefi_image_handle
                0x0000000040107648                uefi_close_protocol
                0x0000000040107650                uefi_open_protocol
                0x0000000040107658                uefi_free_pool
                0x0000000040107660                uefi_locate_handle_buffer
                0x0000000040107668                uefi_acpi_table
                0x0000000040107670                uefi_acpi_20_table
                0x0000000040107678                uefi_wait_for_event
                0x0000000040107680                uefi_free_pages
                0x0000000040107688                uefi_get_memory_map
                0x0000000040107690                uefi_allocate_pages
                0x0000000040107698                uefi_conout_output_string
                0x00000000401076a0                uefi_conin_read_key_stroke
                0x00000000401076a8                uefi_conout
                0x00000000401076b0                uefi_conin

.text           0x0000000040108000   0x10b1e9 load address 0x0000000000108000
                0x0000000040108000                text = .
 *(.text)
 .text          0x0000000040108000   0x10b1e9 output.o
                0x0000000040108b59                acpi_smi_hook
                0x0000000040108ba7                acpi_iohook
                0x0000000040108bfc                acpi_reset
                0x0000000040108cf3                acpi_poweroff
                0x0000000040108d28                get_acpi_time_raw
                0x0000000040108d46                acpi_read_mcfg
                0x000000004010e0a9                acpi_dsdt_parse
                0x000000004010e166                acpi_ssdt_parse
                0x000000004010e2be                apinitproc0
                0x000000004010e2ea                apic_available
                0x000000004010e311                ap_start_addr
                0x000000004010e678                panic_wakeup_all
                0x000000004010e716                disable_apic
                0x000000004010e7e1                sync_all_processors
                0x000000004010e867                start_all_processors
                0x000000004010e8a9                assertion_failed
                0x000000004010e8e8                beep_set_freq
                0x000000004010e914                beep_on
                0x000000004010e91f                beep_off
                0x000000004010efd7                update_mtrr_and_pat
                0x000000004010f3cc                cache_get_gpat
                0x000000004010f41e                cache_set_gpat
                0x000000004010f468                cache_get_attr
                0x000000004010f51a                cache_get_gmtrr_type
                0x000000004010f535                cache_gmtrr_type_equal
                0x000000004010f642                cache_get_gmtrr_attr
                0x000000004010f666                cache_get_gmtrrcap
                0x000000004010f690                cache_get_gmtrr
                0x000000004010f7a0                cache_set_gmtrr
                0x000000004010f7fd                cache_get_gmsr_amd
                0x000000004010f88b                cache_set_gmsr_amd
                0x000000004010fceb                callrealmode_endofcodeaddr
                0x000000004010fcf7                callrealmode_usevcpu
                0x000000004010fcff                callrealmode_printmsg
                0x000000004010fd1b                callrealmode_getsysmemmap
                0x000000004010fd67                callrealmode_getshiftflags
                0x000000004010fd84                callrealmode_setvideomode
                0x000000004010fda1                callrealmode_reboot
                0x000000004010fdb9                callrealmode_tcgbios
                0x000000004010fe56                callrealmode_disk_readmbr
                0x000000004010fe97                callrealmode_disk_readlba
                0x000000004010fee2                callrealmode_bootcd_getstatus
                0x000000004010ff37                callrealmode_setcursorpos
                0x000000004010ff5d                callrealmode_startkernel32
                0x000000004010ff7d                callrealmode_getfontinfo
                0x000000004010ffea                call_uefi_get_memory_map
                0x0000000040110063                call_uefi_allocate_pages
                0x00000000401100c2                call_uefi_free_pages
                0x00000000401100e7                call_uefi_getkey
                0x000000004011015c                call_uefi_putchar
                0x00000000401101a7                call_uefi_disconnect_pcidev_driver
                0x000000004011046c                fill_pagetable
                0x0000000040110575                copy_uefi_bootcode
                0x00000000401106de                get_cpu_id
                0x00000000401106ed                cpu_emul_cpuid
                0x00000000401107a9                cpu_emul_rdmsr
                0x000000004011081a                cpu_emul_wrmsr
                0x000000004011088c                cpu_emul_hlt
                0x000000004011089f                cpu_emul_cli
                0x00000000401108da                cpu_emul_sti
                0x0000000040110923                cpu_emul_realmode_int
                0x0000000040110a95                cpu_emul_xsetbv
                0x0000000040113319                cpu_interpreter
                0x0000000040115600                cpu_mmu_get_pte
                0x0000000040115d36                write_linearaddr_ok_b
                0x0000000040115d58                write_linearaddr_ok_w
                0x0000000040115d66                write_linearaddr_ok_l
                0x0000000040115d74                write_linearaddr_b
                0x0000000040115ddd                write_linearaddr_w
                0x0000000040115e6f                write_linearaddr_l
                0x0000000040115eff                write_linearaddr_q
                0x0000000040115f8d                read_linearaddr_b
                0x0000000040115ff5                read_linearaddr_w
                0x0000000040116081                read_linearaddr_l
                0x000000004011610d                read_linearaddr_q
                0x0000000040116199                read_linearaddr_tss
                0x0000000040116224                write_linearaddr_tss
                0x0000000040119f65                cpu_mmu_spt_tlbflush
                0x0000000040119fa3                cpu_mmu_spt_updatecr3
                0x000000004011a225                cpu_mmu_spt_invalidate
                0x000000004011a299                cpu_mmu_spt_pagefault
                0x000000004011a497                cpu_mmu_spt_extern_mapsearch
                0x000000004011a5c8                cpu_mmu_spt_map_1mb
                0x000000004011a768                cpu_mmu_spt_clear_all
                0x000000004011a8bf                cpu_mmu_spt_init
                0x000000004011aeb4                cpu_seg_read_b
                0x000000004011af1b                cpu_seg_read_w
                0x000000004011af82                cpu_seg_read_l
                0x000000004011afe9                cpu_seg_read_q
                0x000000004011b050                cpu_seg_write_b
                0x000000004011b0b8                cpu_seg_write_w
                0x000000004011b120                cpu_seg_write_l
                0x000000004011b185                cpu_seg_write_q
                0x000000004011b1ec                cpu_stack_get
                0x000000004011b254                cpu_stack_set
                0x000000004011b2e8                cpu_stack_push
                0x000000004011b38d                cpu_stack_pop
                0x000000004011b470                call_cpuid
                0x000000004011b861                debug_gdb
                0x000000004011b863                debug_iohook
                0x000000004011b865                debug_msgregister
                0x000000004011b898                debug_msgunregister
                0x000000004011b944                exint_pass_intr_alloc
                0x000000004011b998                exint_pass_intr_free
                0x000000004011b9b6                exint_pass_intr_register_callback
                0x000000004011ba0c                do_exint_pass
                0x000000004011bb13                read_gphys_b
                0x000000004011bb76                write_gphys_b
                0x000000004011bbf5                read_gphys_w
                0x000000004011bc82                write_gphys_w
                0x000000004011bd2f                read_gphys_l
                0x000000004011bdbc                write_gphys_l
                0x000000004011be6c                read_gphys_q
                0x000000004011bef9                write_gphys_q
                0x000000004011bfa6                cmpxchg_gphys_l
                0x000000004011c05f                cmpxchg_gphys_q
                0x000000004011c118                gmm_pass_getforcemap
                0x000000004011c12c                gmm_pass_gp2hp
                0x000000004011c161                gmm_pass_gp2hp_2m
                0x000000004011c634                idman_reinit_session
                0x000000004011c6b2                idman_reinit2
                0x000000004011c6d6                get_idman_session
                0x000000004011c709                call_initfunc
                0x000000004011c760                initfunc_init
                0x000000004011e2c7                int_fatal
                0x000000004011e622                callfunc_and_getint
                0x000000004011e639                do_externalint_enable
                0x000000004011e651                set_int_handler
                0x000000004011e66c                int_exceptionHandler
                0x000000004011e673                int_init_ap
                0x000000004011e69f                do_io_nothing
                0x000000004011e6da                set_iofunc
                0x000000004011e74b                call_io
                0x000000004011e780                do_iopass_default
                0x000000004011ea1a                keyboard_reset
                0x000000004011ea64                setkbdled
                0x000000004011eab8                keyboard_flush
                0x000000004011ead7                load_bootsector
                0x000000004011ee95                copy_bootsector
                0x000000004011f297                localapic_wait_for_sipi
                0x000000004011f36c                localapic_change_base_msr
                0x000000004011f3e6                localapic_mmio_register
                0x000000004011f44f                localapic_delayed_ap_start
                0x000000004011f457                localapic_x2apic_icr
                0x000000004011fe90                resume_vm
                0x000000004011ff42                vmm_main
                0x0000000040120417                getsysmemmap
                0x0000000040120498                getfakesysmemmap
                0x0000000040120503                phys_to_virt
                0x0000000040120514                vmm_start_inf
                0x000000004012051b                vmm_term_inf
                0x0000000040120527                num_of_available_pages
                0x0000000040120595                mm_get_panicmem
                0x00000000401205bf                mm_free_panicmem
                0x0000000040120606                alloc_pages
                0x000000004012067d                alloc_page
                0x0000000040120690                alloc
                0x000000004012092b                alloc2
                0x0000000040120964                free
                0x0000000040120a60                realloc
                0x0000000040120b96                free_page
                0x0000000040120bac                free_page_phys
                0x0000000040120bd2                mempool_new
                0x0000000040120c2f                mempool_free
                0x0000000040120cd1                mempool_allocmem
                0x0000000040120ec5                mempool_freemem
                0x0000000040121167                sym_to_phys
                0x0000000040121176                phys_in_vmm
                0x0000000040121199                mm_force_unlock
                0x00000000401211bd                mm_process_alloc
                0x0000000040121201                mm_process_free
                0x000000004012120f                pmap_open_vmm
                0x0000000040121235                pmap_open_guest
                0x0000000040121272                pmap_close
                0x0000000040121274                pmap_getreadlevel
                0x000000004012127b                pmap_setlevel
                0x0000000040121282                pmap_seek
                0x00000000401212ed                pmap_read
                0x000000004012157c                pmap_write
                0x0000000040121712                mm_process_unmap
                0x00000000401217f0                mm_process_unmap_stack
                0x00000000401219bb                mm_process_unmapall
                0x0000000040121a55                mm_process_switch
                0x0000000040121cb7                pmap_pointer
                0x0000000040121d15                pmap_clear
                0x0000000040121dfe                pmap_autoalloc
                0x0000000040121f95                mm_process_map_alloc
                0x00000000401220cd                mm_process_map_shared_physpage
                0x0000000040122126                mm_process_map_shared
                0x0000000040122386                mm_process_map_stack
                0x0000000040122d5c                pmap_dump
                0x0000000040122e67                unmapmem
                0x0000000040122f39                mapmem
                0x0000000040123394                read_hphys_b
                0x00000000401233e9                write_hphys_b
                0x000000004012340e                read_hphys_w
                0x0000000040123438                write_hphys_w
                0x000000004012345e                read_hphys_l
                0x0000000040123486                write_hphys_l
                0x00000000401234ab                read_hphys_q
                0x00000000401234d5                write_hphys_q
                0x00000000401234fc                cmpxchg_hphys_l
                0x000000004012353c                cmpxchg_hphys_q
                0x0000000040123580                alloc_realmodemem
                0x000000004012376c                mapmem_hphys
                0x0000000040123787                mapmem_gphys
                0x00000000401237a2                mm_flush_wb_cache
                0x0000000040123de8                mmio_access_memory
                0x00000000401240a7                mmio_access_page
                0x0000000040124180                mmio_register
                0x0000000040124194                mmio_register_unlocked
                0x00000000401241a8                mmio_unregister
                0x0000000040124258                mmio_lock
                0x0000000040124291                mmio_unlock
                0x0000000040124393                mmio_range
                0x0000000040124534                msg_findname
                0x0000000040124594                msg_register
                0x0000000040124662                msg_unregister
                0x00000000401246e0                msg_unregisterall
                0x0000000040124766                msg_unregister2
                0x000000004012481f                call_read_msr
                0x0000000040124836                call_write_msr
                0x0000000040124e2a                msr_pass_hook_x2apic_icr
                0x0000000040124f44                load_minios
                0x0000000040125260                backtrace
                0x0000000040125baf                panic
                0x00000000401260e4                auto_reboot
                0x0000000040126101                panic_test
                0x0000000040126124                pcpu_list_foreach
                0x0000000040126154                pcpu_list_add
                0x00000000401261a3                pcpu_init
                0x0000000040126c90                vprintf
                0x0000000040126cce                printf
                0x0000000040126d16                vsnprintf
                0x0000000040126d54                snprintf
                0x0000000040126f88                sys_msgsetfunc
                0x000000004012702a                sys_msgclose
                0x0000000040127042                sys_msgret
                0x0000000040127128                sys_msgregister
                0x000000004012735b                sys_msgsenddesc
                0x0000000040127720                sys_newprocess
                0x0000000040127783                sys_msgunregister
                0x000000004012780e                sys_exitprocess
                0x0000000040127863                sys_msgopen
                0x00000000401278c4                process_kill
                0x0000000040127928                own_process64_msrs
                0x000000004012800b                sys_msgsendint
                0x00000000401280b3                sys_msgsendbuf
                0x0000000040128204                msgsetfunc
                0x0000000040128215                msgregister
                0x000000004012822e                msgopen
                0x0000000040128244                msgclose
                0x0000000040128252                msgsendint
                0x0000000040128269                msgsenddesc
                0x0000000040128280                newprocess
                0x0000000040128296                msgsendbuf
                0x00000000401282b3                msgunregister
                0x00000000401282e6                exitprocess
                0x00000000401282f9                msgpremapbuf
                0x0000000040128414                process_syscall
                0x00000000401284ce                putchar
                0x000000004012850f                putchar_set_func
                0x00000000401287e5                do_panic_reboot
                0x0000000040128862                handle_init_to_bsp
                0x00000000401288cc                reboot_test
                0x00000000401288f6                savemsr_save
                0x000000004012895a                savemsr_load
                0x0000000040128cba                get_seg_base
                0x0000000040128d69                get_seg_access_rights
                0x0000000040128d85                segment_wakeup
                0x0000000040128dc3                segment_init_ap
                0x000000004012904a                serial_putDebugChar
                0x0000000040129058                serial_getDebugChar
                0x0000000040129069                serial_putchar
                0x00000000401290c1                serial_init_iohook
                0x00000000401290f8                waitcycles
                0x0000000040129117                usleep
                0x000000004012922f                sleep_set_timer_counter
                0x0000000040129254                strtol
                0x00000000401294a1                vmctl_svm_init
                0x0000000040129545                message_exitcode
                0x00000000401298bd                printexitcode
                0x00000000401298e0                svm_available
                0x0000000040129984                svm_reset
                0x0000000040129c28                svm_vminit
                0x000000004012a070                svm_vmexit
                0x000000004012a072                svm_init
                0x000000004012a1cd                svm_enable_resume
                0x000000004012a2d3                svm_resume
                0x000000004012a428                svm_ioio
                0x000000004012a525                svm_iopass
                0x000000004012a688                svm_init_signal
                0x000000004012a6ae                svm_start_vm
                0x000000004012b42c                svm_msr_update_lma
                0x000000004012b49c                svm_read_msr
                0x000000004012b78f                svm_write_msr
                0x000000004012ba7f                svm_msrpass
                0x000000004012c1c1                svm_np_init
                0x000000004012c2ca                svm_np_pagefault
                0x000000004012c34d                svm_np_tlbflush
                0x000000004012c34f                svm_np_updatecr3
                0x000000004012c35d                svm_np_clear_all
                0x000000004012c404                svm_np_extern_mapsearch
                0x000000004012c4af                svm_np_map_1mb
                0x000000004012c510                svm_paging_extern_flush_tlb_entry
                0x000000004012c53a                svm_paging_map_1mb
                0x000000004012c561                svm_paging_flush_guest_tlb
                0x000000004012c59a                svm_paging_init
                0x000000004012c6ab                svm_paging_pagefault
                0x000000004012c6da                svm_paging_tlbflush
                0x000000004012c701                svm_paging_invalidate
                0x000000004012c732                svm_paging_npf
                0x000000004012c761                svm_paging_updatecr3
                0x000000004012c78a                svm_paging_spt_setcr3
                0x000000004012c7be                svm_paging_clear_all
                0x000000004012c7ea                svm_paging_get_gpat
                0x000000004012c7f8                svm_paging_set_gpat
                0x000000004012c838                svm_paging_apply_fixed_cr0
                0x000000004012c857                svm_paging_apply_fixed_cr4
                0x000000004012c876                svm_paging_pg_change
                0x000000004012c878                svm_paging_start
                0x000000004012c87e                svm_panic_dump
                0x000000004012c950                svm_read_general_reg
                0x000000004012ca8c                svm_write_general_reg
                0x000000004012cb98                svm_read_control_reg
                0x000000004012cc36                svm_write_control_reg
                0x000000004012cd0e                svm_read_sreg_sel
                0x000000004012cdcf                svm_read_sreg_acr
                0x000000004012ceaa                svm_read_sreg_base
                0x000000004012cfc1                svm_read_sreg_limit
                0x000000004012d0cd                svm_read_ip
                0x000000004012d0e7                svm_write_ip
                0x000000004012d108                svm_read_flags
                0x000000004012d122                svm_write_flags
                0x000000004012d139                svm_read_gdtr
                0x000000004012d16b                svm_write_gdtr
                0x000000004012d18f                svm_read_idtr
                0x000000004012d1c1                svm_write_idtr
                0x000000004012d1e5                svm_write_realmode_seg
                0x000000004012d324                svm_writing_sreg
                0x000000004012d414                int1a_TCG_StatusCheck
                0x000000004012d4e1                int1a_TCG_HashLogExtendEvent
                0x000000004012d56d                int1a_TCG_PassThroughToTPM
                0x000000004012d5f9                int1a_TCG_HashLogEvent
                0x000000004012d67c                int1a_TCG_HashAll
                0x000000004012d735                int1a_TCG_TSS
                0x000000004012d7c1                int1a_TCG_CompactHashLogExtendEvent
                0x000000004012d824                tcg_measure
                0x000000004012db31                thread_gettid
                0x000000004012db41                schedule
                0x000000004012dd7e                thread_new
                0x000000004012debc                thread_wakeup
                0x000000004012df9c                thread_will_stop
                0x000000004012e014                thread_exit
                0x000000004012e0ba                thread_start1
                0x000000004012e2b7                get_cpu_time
                0x000000004012e375                get_acpi_time
                0x000000004012e41c                get_time
                0x000000004012e604                timer_new
                0x000000004012e681                timer_set
                0x000000004012e79f                timer_free
                0x000000004012ec86                tty_putchar
                0x000000004012ee90                ttylog_stop
                0x000000004012ee9b                tty_udp_register
                0x000000004012eee0                tty_get_logbuf_info
                0x000000004012ef1d                ttylog_copy_to_panicmem
                0x000000004012ef30                ttylog_copy_from_panicmem
                0x000000004012ef43                tty_init_iohook
                0x000000004012ef68                vcpu_list_foreach
                0x000000004012ef98                load_new_vcpu
                0x000000004012f040                vga_register
                0x000000004012f0b5                vga_is_ready
                0x000000004012f108                vga_transfer_image
                0x000000004012f157                vga_fill_rect
                0x000000004012f191                vga_get_screen_size
                0x000000004012f46a                vmmcall
                0x000000004012f4c2                vmmcall_register
                0x000000004012f4ff                vmmcall_init
                0x000000004012f8dd                vmmcall_boot_continue
                0x000000004012f92b                vmmcall_boot_enable
                0x000000004012ffe6                register_status_callback
                0x0000000040130096                vramwrite_clearscreen
                0x00000000401300f3                vramwrite_putchar
                0x00000000401302b0                vramwrite_mark1
                0x00000000401302e8                vramwrite_mark2
                0x0000000040130329                vramwrite_mark3
                0x000000004013036a                vramwrite_save_and_move_cursor
                0x0000000040130398                vramwrite_restore_cursor
                0x00000000401303a6                vramwrite_get_cursor_pos
                0x00000000401303ec                vramwrite_init_global
                0x00000000401303f4                vramwrite_exit_global
                0x000000004013047f                vt_generate_pagefault
                0x0000000040130508                vt_generate_external_int
                0x000000004013055d                vmctl_vt_init
                0x0000000040130601                vt_update_exint
                0x0000000040130681                vt_vmptrld
                0x0000000040130c77                vt_ept_init
                0x0000000040130d7e                vt_ept_violation
                0x0000000040130e01                vt_ept_tlbflush
                0x0000000040130e03                vt_ept_updatecr3
                0x0000000040130ebf                vt_ept_clear_all
                0x0000000040130f66                vt_ept_extern_mapsearch
                0x0000000040131011                vt_ept_map_1mb
                0x0000000040131072                message_exitreason
                0x00000000401311e3                printexitreason
                0x0000000040131db0                vt_available
                0x0000000040131e4c                vt__vmx_init
                0x0000000040131e94                vt__vmxon
                0x0000000040131f3c                vt_vminit
                0x0000000040131f9b                vt_vmexit
                0x0000000040131fb8                vt_init
                0x0000000040131fcb                vt_enable_resume
                0x0000000040132107                vt_resume
                0x0000000040132250                vt_io
                0x0000000040132377                vt_iopass
                0x0000000040133238                init
                0x0000000040133442                parseData
                0x0000000040133449                judge
                0x0000000040133454                vt_update_exception_bmp
                0x0000000040133aa8                vt_init_signal
                0x0000000040133ab6                vt_start_vm
                0x0000000040133f9a                vt_msr_load_process64_msrs
                0x0000000040134048                vt_msr_own_process_msrs
                0x0000000040134074                vt_add_guest_msr
                0x00000000401341c8                vt_read_guest_msr
                0x0000000040134226                vt_write_guest_msr
                0x0000000040134281                vt_msr_update_lma
                0x0000000040134336                vt_read_msr
                0x0000000040134561                vt_write_msr
                0x00000000401347a0                vt_msrpass
                0x00000000401348a2                vt_msr_init
                0x00000000401349ee                vt_paging_extern_flush_tlb_entry
                0x0000000040134a43                vt_paging_map_1mb
                0x0000000040134a61                vt_paging_flush_guest_tlb
                0x0000000040134ac2                vt_paging_pagefault
                0x0000000040134af8                vt_paging_tlbflush
                0x0000000040134b1c                vt_paging_invalidate
                0x0000000040134b42                vt_paging_npf
                0x0000000040134b78                vt_paging_updatecr3
                0x0000000040134ba1                vt_paging_spt_setcr3
                0x0000000040134bc7                vt_paging_clear_all
                0x0000000040134bfd                vt_paging_get_gpat
                0x0000000040134c0b                vt_paging_set_gpat
                0x0000000040134c53                vt_paging_apply_fixed_cr0
                0x0000000040134cb6                vt_paging_apply_fixed_cr4
                0x0000000040134cf9                vt_paging_pg_change
                0x0000000040134f17                vt_paging_init
                0x0000000040134f66                vt_paging_start
                0x0000000040134f87                vt_panic_dump
                0x0000000040135180                vt_read_general_reg
                0x00000000401352a1                vt_write_general_reg
                0x0000000040135395                vt_read_control_reg
                0x000000004013545e                vt_read_sreg_sel
                0x0000000040135567                vt_read_sreg_acr
                0x00000000401355be                vt_read_sreg_base
                0x0000000040135641                vt_read_sreg_limit
                0x00000000401356be                vt_read_ip
                0x00000000401356c7                vt_write_ip
                0x00000000401356e2                vt_read_flags
                0x0000000040135704                vt_write_flags
                0x000000004013572a                vt_read_gdtr
                0x000000004013573a                vt_write_gdtr
                0x000000004013574a                vt_read_idtr
                0x0000000040135788                vt_write_idtr
                0x00000000401357b8                vt_write_control_reg
                0x0000000040135cb2                vt_get_current_regs_in_vmcs
                0x0000000040135f60                vt_get_vmcs_regs_in_vmcs
                0x00000000401360d8                vt_write_realmode_seg
                0x0000000040136224                vt_writing_sreg
                0x00000000401362b0                vt_reset
                0x00000000401365b2                prepare_for_sleep
                0x0000000040136674                cancel_sleep
                0x0000000040136699                wakeup_main
                0x0000000040136724                wakeup_cont
                0x0000000040136867                wakeup_init
                0x00000000401368ae                call_xsetbv
                0x0000000040136970                mpumul_64_64
                0x0000000040136990                mpudiv_128_32
                0x00000000401369b0                ipchecksum
                0x0000000040136a40                crc32
                0x0000000040136a50                asm_vmlaunch_regs_32
                0x0000000040136ad0                asm_vmresume_regs_32
                0x0000000040136b50                asm_vmrun_regs_32
                0x0000000040136bb0                asm_vmrun_regs_nested_32
                0x0000000040136c20                asm_vmlaunch_regs_64
                0x0000000040136d00                asm_vmresume_regs_64
                0x0000000040136de0                asm_vmrun_regs_64
                0x0000000040136e90                asm_vmrun_regs_nested_64
                0x0000000040136f42                callrealmode_start
                0x0000000040136f58                callrealmode_start2
                0x00000000401373e4                move_vmm_area32
                0x00000000401373e4                callrealmode_end
                0x0000000040137409                move_vmm_area64
                0x0000000040137438                int_handler
                0x00000000401374b0                int_callfunc
                0x0000000040138000                syscall_entry_sysexit
                0x000000004013802c                syscall_entry_lret
                0x000000004013805c                ret_to_user32
                0x0000000040138068                syscall_entry_sysret64
                0x00000000401380b0                ret_to_user64
                0x0000000040139000                processuser_sysenter
                0x000000004013a000                processuser_no_sysenter
                0x000000004013b000                processuser_syscall
                0x000000004013c140                memset
                0x000000004013c1c0                memcpy
                0x000000004013c200                strcmp
                0x000000004013c240                memcmp
                0x000000004013c280                strlen
                0x000000004013c298                sx_handler
                0x000000004013c2f0                thread_switch
                0x000000004013c310                thread_start0
                0x000000004013c34a                disconnect_pcidev_driver
                0x000000004013c3b0                core_init
                0x000000004013c3bc                core_mm_read_guest_phys
                0x000000004013c426                core_mm_write_guest_phys
                0x000000004013c490                alloc_handler_descriptor
                0x000000004013c4a3                core_io_modify_handler
                0x000000004013c565                core_io_unregister_handler
                0x000000004013c5df                core_io_handle_default
                0x000000004013c8ce                panic_oom
                0x000000004013c8e1                core_io_register_handler
                0x000000004013ca40                matched_drhd_u
                0x000000004013ca99                parse_dmar_bios_report
                0x000000004013caa5                ieee1394_init
                0x000000004013cafd                iommu_setup
                0x000000004013caff                iodom_init
                0x000000004013ccc8                add_remap
                0x000000004013cd45                create_dom
                0x000000004013cd4b                pci_conceal_config_write
                0x000000004013cd51                pci_conceal_config_read
                0x000000004013cdcc                pci_conceal_new
                0x000000004013d1d4                pci_save_config_addr
                0x000000004013d1e1                pci_restore_config_addr
                0x000000004013d1ee                pci_append_device
                0x000000004013d21b                pci_dump_pci_dev_list
                0x000000004013d21d                pci_find_driver_for_device
                0x000000004013d22b                pci_find_driver_by_token
                0x000000004013d29a                pci_config_addr_handler
                0x000000004013d2de                pci_set_bridge_fake_command
                0x000000004013d3ab                pci_register_driver
                0x000000004013d3f9                pci_register_intr_callback
                0x000000004013d412                pci_read_config_data8
                0x000000004013d453                pci_read_config_data16
                0x000000004013d495                pci_read_config_data32
                0x000000004013d4d6                pci_write_config_data8
                0x000000004013d517                pci_write_config_data16
                0x000000004013d559                pci_write_config_data32
                0x000000004013d59a                pci_read_config_data_port
                0x000000004013d5c7                pci_write_config_data_port
                0x000000004013d5f8                pci_readwrite_config_mmio
                0x000000004013d6be                pci_read_config_mmio
                0x000000004013d6e9                pci_write_config_mmio
                0x000000004013d714                pci_handle_default_config_write
                0x000000004013d880                pci_handle_default_config_read
                0x000000004013d949                pci_config_data_handler
                0x000000004013dc82                pci_config_mmio_handler
                0x000000004013dfb9                pci_get_bar_info
                0x000000004013dfcb                pci_set_bridge_io
                0x000000004013e309                pci_get_modifying_bar_info
                0x000000004013e3c2                pci_driver_option_get_int
                0x000000004013e43a                pci_driver_option_get_bool
                0x000000004013e52a                pci_msi_init
                0x000000004013e750                pci_msi_enable
                0x000000004013e79e                pci_msi_disable
                0x000000004013e7ec                pci_print_device
                0x000000004013ec9c                pci_get_bridge_from_bus_no
                0x000000004013ecde                pci_set_bridge_from_bus_no
                0x000000004013f00d                pci_reconnect_device
                0x000000004013f272                pci_possible_new_device
                0x000000004013f30f                pci_system_disconnect
                0x000000004013f7ef                pci_match
                0x000000004013ff26                pci_match_add_compat
                0x000000004013ff52                pci_match_find_driver
                0x0000000040140592                security_storage_check_lba
                0x0000000040141950                pci_monitor_config_read
                0x0000000040141a9f                pci_monitor_config_write
                0x00000000401420b5                pci_monitor_new
                0x000000004014503a                ahci_new
                0x00000000401452c3                ahci_config_read
                0x0000000040145329                ahci_config_write
                0x0000000040145538                ata_bm_handle_command
                0x000000004014565e                ata_bm_handle_status
                0x00000000401456fc                ata_bm_handle_prd_table
                0x00000000401457e8                ata_bm_handler
                0x00000000401458e2                ata_get_cmd_type
                0x0000000040145c07                ata_handle_queued_status
                0x0000000040146562                ata_channel_lock
                0x00000000401465ca                ata_channel_unlock
                0x00000000401465ec                ata_cmdblk_handler
                0x00000000401466f6                ata_ctlblk_handler
                0x00000000401472eb                ata_ahci_mode
                0x00000000401477ca                ata_init_io_handler
                0x0000000040147860                ata_set_bm_handler
                0x00000000401478b3                ata_set_cmdblk_handler
                0x00000000401478ec                ata_set_ctlblk_handler
                0x0000000040147927                ata_config_read
                0x00000000401479f5                ata_config_write
                0x0000000040147b93                ata_init_vendor
                0x0000000040147bb6                ata_bm_handle_device_specific
                0x0000000040147cb0                atapi_handle_config_data
                0x0000000040147efb                atapi_handle_interrupt_reason
                0x0000000040147f41                atapi_handle_pio_identify_packet
                0x00000000401480c7                atapi_handle_packet_data
                0x00000000401480cd                atapi_handle_cmd_packet
                0x000000004014813f                packet_handle_through
                0x000000004014816d                packet_handle_nondata
                0x0000000040148182                packet_handle_config
                0x00000000401481c7                packet_handle_rw
                0x0000000040148252                packet_handle_invalid
                0x0000000040148267                packet_handle_command
                0x00000000401482a0                uhci_init
                0x0000000040148b53                uhci_current_frame_number
                0x0000000040148b60                dump_td_byvirt
                0x0000000040148d28                dump_td
                0x0000000040148df5                dump_qh
                0x0000000040148fcf                dump_frame
                0x00000000401490d0                uhci_dump_all
                0x0000000040149289                uhci_error_status_string
                0x0000000040149310                usb_api_batchtest
                0x00000000401499e3                uhci_shadow_buffer
                0x0000000040149c45                uhci_framelist_monitor
                0x000000004014bbaa                scan_gframelist
                0x000000004014c469                uhci_create_urb
                0x000000004014c5c0                uhci_destroy_urb
                0x000000004014c6e9                uhci_destroy_unlinked_urbs
                0x000000004014c7bd                uhci_deactivate_urb
                0x000000004014cb1e                uhci_activate_urb
                0x000000004014d096                uhci_reactivate_urb
                0x000000004014d138                uhci_submit_control
                0x000000004014d764                uhci_submit_interrupt
                0x000000004014d7cd                uhci_submit_bulk
                0x000000004014d836                uhci_check_urb_advance
                0x000000004014d862                uhci_check_advance
                0x000000004014da67                init_hframelist
                0x000000004014dd2b                ehci_conceal_portroute
                0x000000004014dd66                ehci_init
                0x000000004014fbc7                ehci_dump_qtd
                0x000000004014fc27                ehci_dump_qtdm
                0x000000004014fc5b                ehci_dump_alist
                0x000000004014fd18                ehci_dump_urblist
                0x000000004014fda2                ehci_dump_urb
                0x0000000040150238                ehci_dump_async
                0x000000004015069f                ehci_dump_all
                0x0000000040151c1e                ehci_shadow_buffer
                0x0000000040151eba                get_gurb_by_address
                0x0000000040151f51                shadow_and_activate_urb
                0x000000004015223b                ehci_deactivate_urb
                0x00000000401523c2                deactivate_and_delete_urb
                0x000000004015263a                ehci_check_urb_advance
                0x00000000401527fe                ehci_check_advance
                0x0000000040152a39                ehci_shadow_async_list
                0x0000000040152b41                ehci_cleanup_urbs
                0x0000000040152c9b                ehci_end_monitor_async
                0x0000000040152d05                ehci_monitor_async_list
                0x000000004015338b                ehci_submit_control
                0x0000000040153928                ehci_submit_bulk
                0x000000004015392e                ehci_submit_interrupt
                0x0000000040153a01                xhci_init
                0x000000004015658e                xhci_unmap_guest_erst
                0x0000000040156623                xhci_create_shadow_erst
                0x0000000040156840                xhci_update_er_and_dev_ctx
                0x0000000040157568                xhci_sync_state
                0x00000000401575bf                xhci_process_cmd_trb
                0x0000000040158444                xhci_construct_gurbs
                0x00000000401590bc                xhci_append_h_urb_to_ep
                0x0000000040159119                xhci_shadow_g_urb
                0x0000000040159251                xhci_shadow_trbs
                0x0000000040159746                xhci_hand_eps_back_to_guest
                0x00000000401597bb                xhci_set_no_data_trb_hook
                0x0000000040159823                xhci_ep0_shadowing
                0x000000004015984f                xhci_ep0_copyback
                0x00000000401598ca                xhci_hc_reset
                0x00000000401599d7                xhci_submit_control
                0x0000000040159e87                xhci_submit_bulk
                0x0000000040159e8d                xhci_submit_interrupt
                0x0000000040159e93                xhci_check_urb_advance
                0x000000004015a1d2                xhci_deactivate_urb
                0x000000004015be2a                usbmsc_init_handle
                0x000000004015c1eb                usbhub_init_handle
                0x000000004015c25f                hub_portdevice_register
                0x000000004015c929                usbccid_init_handle
                0x000000004015ca40                usb_set_debug
                0x000000004015ca47                usb_init
                0x000000004015ca49                usb_find_busses
                0x000000004015cb26                usb_get_busses
                0x000000004015cb2e                usb_get_bus
                0x000000004015cb59                usb_find_devices
                0x000000004015cba4                usb_open
                0x000000004015cc01                usb_close
                0x000000004015cc14                usb_resetep
                0x000000004015cc1a                usb_clear_halt
                0x000000004015cc20                usb_reset
                0x000000004015cc26                usb_claim_interface
                0x000000004015cc2f                usb_release_interface
                0x000000004015cc3c                usb_set_configuration
                0x000000004015cee5                usb_set_altinterface
                0x000000004015d190                usb_control_msg
                0x000000004015d4f1                usb_get_string
                0x000000004015d82e                usb_get_string_simple
                0x000000004015da1a                usb_get_descriptor
                0x000000004015dd5c                usb_get_descriptor_early
                0x000000004015e0aa                usb_get_descriptor_by_endpoint
                0x000000004015e3f0                usb_bulk_write
                0x000000004015e622                usb_interrupt_write
                0x000000004015e854                usb_bulk_read
                0x000000004015eb05                usb_interrupt_read
                0x000000004015edb6                usb_register_host
                0x000000004015eef0                usb_unregister_devices
                0x000000004015ef23                usb_sc_lock
                0x000000004015ef86                usb_sc_unlock
                0x000000004015f683                free_config_descriptors
                0x000000004015f7d3                free_device
                0x000000004015f938                handle_connect_status
                0x000000004015fa35                handle_port_reset
                0x000000004015fb08                dprintf_port
                0x00000000401609d6                usb_init_device_monitor
                0x0000000040160a3b                usb_init_device
                0x0000000040160abb                usb_new_dev_handle
                0x0000000040160b6f                usbhid_init_handle
                0x0000000040160c96                usb_hook_register_ex
                0x0000000040160dbd                usb_hook_register
                0x0000000040160e18                usb_hook_unregister
                0x0000000040160e8b                usb_hook_process
                0x000000004016121a                _dprintf
                0x0000000040161270                _dprintft
                0x000000004016132e                pro100_io_handler
                0x0000000040161334                pro100_config_read
                0x000000004016134e                pro100_config_write
                0x0000000040161471                pro100_init
                0x0000000040161484                pro100_init_vpn_client
                0x00000000401614cb                pro100_sleep
                0x00000000401614f9                pro100_beep
                0x0000000040161522                pro100_get_ctx
                0x000000004016159d                pro100_alloc_page
                0x00000000401615d2                pro100_free_page
                0x00000000401615ea                pro100_get_op_size
                0x0000000040161623                pro100_mem_read
                0x0000000040161687                pro100_read_send_packet
                0x0000000040161858                pro100_mem_write
                0x00000000401618ba                pro100_write
                0x0000000040161928                pro100_read
                0x00000000401619a3                pro100_wait_cu_ru_accepable
                0x00000000401619df                pro100_init_cu_base_addr
                0x0000000040161a32                pro100_init_ru_base_addr
                0x0000000040161a85                pro100_flush
                0x0000000040161aa3                pro100_exec_cu_op
                0x0000000040161bec                pro100_send_packet_to_line
                0x0000000040161d23                pro100_generate_int
                0x0000000040161d55                pro100_write_recv_packet
                0x0000000040161ea7                pro100_proc_guest_op
                0x00000000401620bb                pro100_get_int_bit_string
                0x0000000040162131                pro100_get_stat_ack_string
                0x000000004016219c                pro100_get_cu_command_string
                0x000000004016220a                pro100_get_ru_command_string
                0x0000000040162248                pro100_init_recv_buffer
                0x000000004016237b                pro100_poll_ru
                0x000000004016247b                pro100_hook_write
                0x0000000040162735                pro100_hook_read
                0x00000000401628f3                pro100_mm_handler
                0x0000000040162a38                pro100_alloc_recv_buffer
                0x0000000040162a99                pro100_new
                0x00000000401670ae                virtio_net_config_read
                0x0000000040167320                virtio_net_config_write
                0x00000000401674cc                virtio_net_set_multifunction
                0x00000000401674d0                virtio_net_set_msix
                0x00000000401674e9                virtio_net_msix
                0x000000004016756f                virtio_intr
                0x00000000401675d1                virtio_net_init
                0x0000000040167786                storage_premap_buf
                0x000000004016778c                storage_premap_handle_sectors
                0x0000000040167ab2                storage_get_num_hc
                0x0000000040167adf                storage_hc_open
                0x0000000040167bd4                storage_hc_close
                0x0000000040167c21                storage_hc_hook_register
                0x0000000040167c99                storage_hc_hook_unregister
                0x0000000040167d36                storage_hc_register
                0x0000000040167efc                storage_hc_unregister
                0x0000000040167ff1                storage_hc_scandev
                0x0000000040168039                storage_hc_dev_open
                0x0000000040168166                storage_hc_dev_atacommand
                0x0000000040168339                storage_hc_dev_close
                0x00000000401683ec                storage_io_init
                0x00000000401683fc                storage_io_deinit
                0x000000004016840a                storage_io_get_num_devices
                0x00000000401684cd                storage_io_aget_size
                0x0000000040168620                storage_io_aread
                0x000000004016883d                storage_io_awrite
                0x0000000040168fa3                storage_handle_sectors
                0x00000000401691c5                storage_new
                0x0000000040169636                storage_free
                0x0000000040169644                storage_init
                0x000000004016985b                aes_xts_init
                0x00000000401698a0                crypto_find
                0x00000000401698e6                crypto_register
                0x0000000040169929                crypto_init
                0x000000004016997b                crypto_none_init
                0x0000000040169b43                msg_usb_bulk_read
                0x0000000040169bad                msg_usb_bulk_write
                0x0000000040169c17                msg_usb_claim_interface
                0x0000000040169c65                msg_usb_close
                0x0000000040169cc0                msg_usb_control_msg
                0x0000000040169d44                msg_usb_find_busses
                0x0000000040169d85                msg_usb_find_devices
                0x0000000040169dc6                msg_usb_get_busses
                0x0000000040169e3b                msg_usb_get_string_simple
                0x0000000040169ea0                msg_usb_init
                0x0000000040169eb8                msg_usb_open
                0x0000000040169f39                msg_usb_release_interface
                0x0000000040169f87                msg_usb_reset
                0x0000000040169fce                IDMan_StReadSetData
                0x000000004016a6b3                idman_user_init
                0x000000004016a700                IDMan_IPIdPassListMalloc
                0x000000004016a7d6                IDMan_IPRetJudgment
                0x000000004016a84e                IDMan_IPInitializeReader
                0x000000004016a882                IDMan_IPInitialize
                0x000000004016a978                IDMan_IPFinalize
                0x000000004016a9c1                IDMan_IPFinalizeReader
                0x000000004016a9e6                IDMan_getMemoryFree
                0x000000004016aa2f                IDMan_PaddingParamChk
                0x000000004016ab32                IDMan_CmPadding
                0x000000004016aca8                IDMan_CmPadding2
                0x000000004016adeb                IDMan_IPgetCertPKCS
                0x000000004016b499                IDMan_IPgetCertIdxPKCS
                0x000000004016b9cf                IDMan_IPCheckPKC
                0x000000004016bbeb                IDMan_CheckCardStatus
                0x000000004016bc20                IDMan_IPgSParamChk
                0x000000004016bd57                IDMan_IPgIdxSParamChk
                0x000000004016bd98                IDMan_IPgetPrivateKey
                0x000000004016bfaa                IDMan_IPgetHash
                0x000000004016c08a                IDMan_IPCrSignature
                0x000000004016c1e8                IDMan_generateSignature
                0x000000004016c328                IDMan_generateSignatureByIndex
                0x000000004016c44e                IDMan_EncryptByIndex
                0x000000004016c590                IDMan_IPgCParamChk
                0x000000004016c687                IDMan_getCertificate
                0x000000004016c9c4                IDMan_IPgCIndexParamChk
                0x000000004016c9f6                IDMan_getCertificateByIndex
                0x000000004016cd90                IDMan_getStaticPassword
                0x000000004016d0e0                IDMan_IPuAPKCS11ParamChk
                0x000000004016d1ec                IDMan_IPuAPKCS11IdxParamChk
                0x000000004016d215                IDMan_IPgetCertPkeyPKCSx
                0x000000004016d6fe                IDMan_IPgetCertPkeyIdxPKCSx
                0x000000004016db37                IDMan_IPgetCertPkeyPKCSy
                0x000000004016dc79                IDMan_IPCheckCrlPkcX
                0x000000004016dda9                IDMan_IPgetMakeRandData
                0x000000004016de15                IDMan_IPMkRandHash
                0x000000004016debb                IDMan_IPgetPrivateKeyPKCSx
                0x000000004016e0c7                IDMan_IPSignatureVerify
                0x000000004016e240                IDMan_userAuthPKCS11
                0x000000004016e72d                IDMan_userAuthPKCS11ByIndex
                0x000000004016ec20                IDMan_IPvSParamChk
                0x000000004016edbf                IDMan_IPvSIdxParamChk
                0x000000004016ee41                IDMan_IPMkPublicKeyObj
                0x000000004016ef8d                IDMan_IPCheckSignature
                0x000000004016f14a                IDMan_verifySignature
                0x000000004016f34a                IDMan_verifySignatureByIndex
                0x000000004016f530                CardEstablishContext
                0x000000004016f54b                CardReleaseContext
                0x000000004016f56f                CardListReaders
                0x000000004016f58a                CardConnect
                0x000000004016f5cb                CardDisconnect
                0x000000004016f5eb                CardStatus
                0x000000004016f643                CardTransmit
                0x000000004016f682                SelectFileDF
                0x000000004016f74c                SelectFileEF
                0x000000004016f811                Verify
                0x000000004016f8ef                InternalAuth
                0x000000004016f9fb                ReadBinary
                0x000000004016ff40                UpdateBinary
                0x000000004017003a                GetICCardData
                0x0000000040170390                GetUlByTxt
                0x00000000401703ca                GetVerByTex
                0x00000000401704a7                GetUlByByte
                0x00000000401704f2                TransHex2Tex
                0x000000004017057c                TransTex2Hex
                0x000000004017063a                GetLength
                0x000000004017069b                SetLength
                0x00000000401706fa                GetTlvByBuf
                0x0000000040170a65                GetDirDataByTlv
                0x0000000040170b98                GetOdfDataByTlv
                0x0000000040170d0b                GetTokenDataByTlv
                0x0000000040171147                AddObjTblByTlv
                0x0000000040171775                AddCertDataByBuf
                0x000000004017186c                AddIdPassDataByBuf
                0x0000000040171c45                GetValueData
                0x0000000040171fe0                AddElem
                0x0000000040172069                SetElem
                0x000000004017211d                GetElem
                0x0000000040172154                GetAttrValType
                0x00000000401722c1                DestroyAttribute
                0x00000000401722fe                DestroyTlvData
                0x000000004017231c                DestroyElem
                0x0000000040172395                DestroyList
                0x00000000401723d3                DestroyTokenData
                0x0000000040172426                DestroySlotData
                0x0000000040172455                DestroySessionData
                0x0000000040172486                DelElem
                0x00000000401724f0                C_GetFunctionList
                0x00000000401724fd                C_Initialize
                0x000000004017266e                C_Finalize
                0x000000004017270d                C_GetInfo
                0x000000004017278f                C_GetSlotList
                0x0000000040172fe7                C_GetSlotInfo
                0x00000000401730cd                C_GetTokenInfo
                0x000000004017396e                C_GetMechanismList
                0x0000000040173a35                C_GetMechanismInfo
                0x0000000040173ae8                C_OpenSession
                0x0000000040173ca2                C_CloseSession
                0x0000000040173d6f                C_CloseAllSessions
                0x0000000040173e80                C_GetSessionInfo
                0x0000000040173efa                C_Login
                0x0000000040174379                C_Logout
                0x0000000040174489                C_FindObjectsInit
                0x00000000401746ea                C_FindObjects
                0x0000000040174c36                C_FindObjectsFinal
                0x0000000040174caf                C_GetAttributeValue
                0x0000000040174ff4                C_SignInit
                0x00000000401750c0                C_Sign
                0x000000004017544e                C_DigestInit
                0x00000000401754c7                C_DigestUpdate
                0x0000000040175546                C_DigestFinal
                0x000000004017568c                C_VerifyInit
                0x0000000040175758                C_Verify
                0x00000000401758c2                C_CreateObject
                0x0000000040175b81                C_DestroyObject
                0x0000000040175c3e                C_SetAttributeValue
                0x000000004017685b                C_GetCardStatus
                0x00000000401768f0                IDMan_StFree
                0x0000000040176904                IDMan_StMemcpy
                0x0000000040176928                IDMan_StMemset
                0x0000000040176944                IDMan_StMalloc
                0x000000004017697e                IDMan_StMemcmp
                0x00000000401769ca                IDMan_StStrlen
                0x00000000401769e6                IDMan_StStrcat
                0x0000000040176a20                IDMan_StStrchr
                0x0000000040176a53                IDMan_StStrcpy
                0x0000000040176a7a                IDMan_StStrcmp
                0x0000000040176ab9                StIsspace
                0x0000000040176b1a                StIsdigit
                0x0000000040176b27                IDMan_StAtoi
                0x0000000040176b7b                IDMan_StAtol
                0x0000000040176bd9                IDMan_CmMkHash
                0x0000000040176d8e                IDMan_CmChgRSA
                0x0000000040176f2d                IDMan_CmGetDN
                0x00000000401771b0                IDMan_CmGetCertificateSign
                0x00000000401773b2                IDMan_CmGetPublicKey
                0x0000000040177563                IDMan_CmMakeRand
                0x00000000401775fe                IDMan_CmCheckCRL
                0x0000000040177960                IDMan_SCardEstablishContext
                0x0000000040177980                IDMan_SCardReleaseContext
                0x000000004017798e                IDMan_SCardListReaders
                0x00000000401779bc                IDMan_SCardConnect
                0x00000000401779ea                IDMan_SCardDisconnect
                0x00000000401779f8                IDMan_SCardStatus
                0x0000000040177a74                IDMan_SCardSizeLongToChar
                0x0000000040177ab5                IDMan_SCardSetBinay
                0x0000000040177e00                IDMan_SCardTransmit
                0x0000000040177e70                EHDestroyEventHandler
                0x0000000040177ed0                EHInitEventHandler
                0x0000000040177f90                EHStatusHandler
                0x000000004017811f                HPSearchHotPluggables
                0x0000000040178460                PHGetProtocol
                0x0000000040178887                PHSetProtocol
                0x00000000401788de                RFAddReader
                0x00000000401789f5                RFRemoveReader
                0x0000000040178ab3                RFReaderInfoById
                0x0000000040178adf                RFCheckReaderEventState
                0x0000000040178b10                SCardEstablishContext
                0x0000000040178bf8                SCardListReaders
                0x0000000040178c85                SCardConnect
                0x0000000040178f14                SCardDisconnect
                0x00000000401790cb                SCardBeginTransaction
                0x0000000040179120                SCardEndTransaction
                0x00000000401792fc                SCardStatus
                0x000000004017951b                SCardReleaseContext
                0x00000000401795e2                SCardTransmit
                0x0000000040179820                SetATR
                0x0000000040179a5a                GetIFSCData
                0x0000000040179ab2                GetBWICWIData
                0x0000000040179b4c                IFDHCloseChannel
                0x0000000040179bc8                IFDHGetCapabilities
                0x0000000040179c08                IFDHSetProtocolParameters
                0x000000004017a33a                IFDHPowerICC
                0x000000004017a51a                IFDHTransmitToICC
                0x000000004017a7e9                IFDHControl
                0x000000004017a8f1                IFDHICCPresence
                0x000000004017a991                IFDHCreateChannel
                0x000000004017aa40                FindBaudRateTable
                0x000000004017aa82                ExchangePPSData
                0x000000004017b131                InitLeaderCardProtocol
                0x000000004017b22f                T1XfrBlockTPDU
                0x000000004017b859                T1NegociateIFSD
                0x000000004017b992                CardStateConfirm
                0x000000004017b9c3                GetCardStatus
                0x000000004017bacf                PowerOn
                0x000000004017bc3a                PowerOff
                0x000000004017bd8e                CardMechanical
                0x000000004017bea0                TransmitPPS
                0x000000004017bfe1                TransmitCommand
                0x000000004017c08b                ReceiveReply
                0x000000004017c21c                ReadDataT0
                0x000000004017c2c8                BlockSendCardT1
                0x000000004017c4e0                T0XfrBlockCHAR
                0x000000004017c9f6                T0XfrBlockTPDU
                0x000000004017ca72                T1XfrBlockExtendedAPDU
                0x000000004017cdb5                OpenUSB
                0x000000004017d15c                WriteUSB
                0x000000004017d17e                ReadUSB
                0x000000004017d1cb                CloseUSB
                0x000000004017d35d                net_register
                0x000000004017d3c7                net_new_nic
                0x000000004017d493                net_init
                0x000000004017d4ca                net_start
                0x000000004017d514                net_premap_recvbuf
                0x000000004017d540                lwip_htons
                0x000000004017d547                lwip_ntohs
                0x000000004017d54e                lwip_htonl
                0x000000004017d574                lwip_ntohl
                0x000000004017e89a                dhcp_set_struct
                0x000000004017e98d                dhcp_cleanup
                0x000000004017e9cc                dhcp_inform
                0x000000004017eaee                dhcp_network_changed
                0x000000004017eb3f                dhcp_renew
                0x000000004017ec08                dhcp_coarse_tmr
                0x000000004017ec8f                dhcp_release
                0x000000004017ed9a                dhcp_fine_tmr
                0x000000004017ee82                dhcp_stop
                0x000000004017eefd                dhcp_start
                0x000000004017f633                dns_setserver
                0x000000004017f65c                dns_init
                0x000000004017f6d5                dns_getserver
                0x000000004017f6ee                dns_tmr
                0x000000004017f72a                dns_gethostbyname
                0x000000004017f960                lwip_init
                0x000000004017f990                mem_init
                0x000000004017f9e2                mem_free
                0x000000004017fb5f                mem_trim
                0x000000004017fc9e                mem_malloc
                0x000000004017fe67                mem_calloc
                0x000000004017fe98                memp_init
                0x000000004017ff00                memp_malloc
                0x000000004017ff6a                memp_free
                0x000000004017ffb0                netif_init
                0x000000004017ffb2                netif_find
                0x000000004017fffe                netif_set_ipaddr
                0x0000000040180085                netif_set_addr
                0x00000000401800c1                netif_add
                0x000000004018016d                netif_set_gw
                0x000000004018017f                netif_set_netmask
                0x0000000040180191                netif_set_default
                0x0000000040180199                netif_set_up
                0x00000000401801c3                netif_set_down
                0x00000000401801e6                netif_remove
                0x0000000040180257                netif_set_link_up
                0x000000004018029d                netif_set_link_down
                0x00000000401802b0                pbuf_free_ooseq
                0x00000000401802fb                pbuf_alloced_custom
                0x000000004018039c                pbuf_header
                0x0000000040180486                pbuf_free
                0x0000000040180594                pbuf_alloc
                0x000000004018087d                pbuf_realloc
                0x00000000401809ac                pbuf_clen
                0x00000000401809c9                pbuf_ref
                0x00000000401809d5                pbuf_cat
                0x0000000040180a62                pbuf_chain
                0x0000000040180a75                pbuf_dechain
                0x0000000040180b28                pbuf_copy
                0x0000000040180cce                pbuf_copy_partial
                0x0000000040180dad                pbuf_take
                0x0000000040180ec0                pbuf_coalesce
                0x0000000040180f30                pbuf_get_at
                0x0000000040180f6d                pbuf_memcmp
                0x0000000040181009                pbuf_memfind
                0x0000000040181070                pbuf_strstr
                0x00000000401810c0                raw_input
                0x000000004018116e                raw_bind
                0x0000000040181184                raw_connect
                0x000000004018119b                raw_recv
                0x00000000401811a4                raw_sendto
                0x00000000401812c3                raw_send
                0x00000000401812d5                raw_remove
                0x0000000040181329                raw_new
                0x000000004018144e                tcp_init
                0x0000000040181450                tcp_bind
                0x000000004018153b                tcp_listen_with_backlog
                0x0000000040181665                tcp_update_rcv_ann_wnd
                0x00000000401816e5                tcp_recved
                0x000000004018176a                tcp_seg_free
                0x0000000040181790                tcp_segs_free
                0x00000000401817ab                tcp_setprio
                0x00000000401817b0                tcp_seg_copy
                0x00000000401817f9                tcp_arg
                0x00000000401817fe                tcp_recv
                0x000000004018182e                tcp_sent
                0x000000004018185e                tcp_err
                0x000000004018188e                tcp_accept
                0x0000000040181893                tcp_poll
                0x00000000401818c6                tcp_pcb_purge
                0x0000000040181946                tcp_slowtmr
                0x0000000040181e89                tcp_pcb_remove
                0x0000000040182214                tcp_close
                0x0000000040182231                tcp_recv_null
                0x0000000040182265                tcp_process_refused_data
                0x0000000040182321                tcp_fasttmr
                0x0000000040182399                tcp_tmr
                0x00000000401823c0                tcp_shutdown
                0x0000000040182442                tcp_abandon
                0x0000000040182546                tcp_abort
                0x0000000040182559                tcp_next_iss
                0x000000004018256c                tcp_alloc
                0x000000004018274d                tcp_new
                0x0000000040182760                tcp_eff_send_mss
                0x0000000040182792                tcp_connect
                0x0000000040182946                tcp_debug_state_str
                0x0000000040183947                tcp_input
                0x00000000401849b8                tcp_write
                0x0000000040185164                tcp_enqueue_flags
                0x0000000040185341                tcp_send_fin
                0x00000000401853aa                tcp_send_empty_ack
                0x0000000040185440                tcp_output
                0x0000000040185805                tcp_rst
                0x0000000040185913                tcp_rexmit_rto
                0x0000000040185969                tcp_rexmit
                0x00000000401859fc                tcp_rexmit_fast
                0x0000000040185a5b                tcp_keepalive
                0x0000000040185ae5                tcp_zero_window_probe
                0x0000000040185c00                udp_init
                0x0000000040185c02                udp_input
                0x0000000040185f34                udp_bind
                0x0000000040186096                udp_sendto_if
                0x0000000040186227                udp_sendto
                0x0000000040186271                udp_send
                0x0000000040186287                udp_connect
                0x0000000040186310                udp_disconnect
                0x0000000040186322                udp_recv
                0x000000004018632b                udp_remove
                0x000000004018637f                udp_new
                0x0000000040186420                sys_timeout
                0x00000000401864e4                tcp_timer_needed
                0x000000004018656a                sys_timeouts_init
                0x00000000401866c2                sys_untimeout
                0x000000004018672d                sys_check_timeouts
                0x00000000401867b6                sys_restart_timeouts
                0x0000000040186866                autoip_set_struct
                0x00000000401868ec                autoip_start
                0x0000000040186a01                autoip_network_changed
                0x0000000040186a23                autoip_stop
                0x0000000040186a3e                autoip_tmr
                0x0000000040186bea                autoip_arp_reply
                0x0000000040186d43                inet_chksum_pseudo
                0x0000000040186e34                inet_chksum_pseudo_partial
                0x0000000040186f92                inet_chksum
                0x0000000040186f9d                inet_chksum_pbuf
                0x0000000040187030                ip_route
                0x0000000040187078                ip_input
                0x000000004018730a                ip_output_if
                0x00000000401874b6                ip_output
                0x000000004018763b                icmp_input
                0x00000000401878e3                icmp_dest_unreach
                0x00000000401878fa                icmp_time_exceeded
                0x0000000040187920                ip4_addr_isbroadcast
                0x0000000040187960                ip4_addr_netmask_valid
                0x00000000401879a7                ipaddr_aton
                0x0000000040187b89                ipaddr_addr
                0x0000000040187ba8                ipaddr_ntoa_r
                0x0000000040187c98                ipaddr_ntoa
                0x0000000040187f6f                ip_reass_tmr
                0x0000000040187fb7                ip_reass
                0x0000000040188534                ip_frag
                0x0000000040188a89                etharp_tmr
                0x0000000040188add                etharp_cleanup_netif
                0x0000000040188b12                etharp_find_addr
                0x0000000040188b97                etharp_raw
                0x0000000040188d0b                etharp_request
                0x0000000040188dd2                etharp_query
                0x0000000040189016                etharp_output
                0x00000000401891e2                ethernet_input
                0x0000000040189514                ip_sys_now
                0x0000000040189542                sys_now
                0x0000000040189630                ip_main_input
                0x00000000401897e5                tcpip_begin
                0x00000000401897f3                ip_main_init
                0x00000000401899fb                ip_main_task
                0x0000000040189dab                net_main_task_add
                0x0000000040189eba                net_main_send
                0x0000000040189eec                net_main_poll
                0x0000000040189f09                net_main_get_mac_address
                0x0000000040189f3d                net_main_set_recv_arg
                0x000000004018a2d6                echo_server_init
                0x000000004018a405                echo_client_send
                0x000000004018a45b                echo_client_init
                0x000000004018a640                AES_set_encrypt_key
                0x000000004018aa43                AES_set_decrypt_key
                0x000000004018ac6e                AES_encrypt
                0x000000004018b111                AES_decrypt
                0x000000004018b5a0                BIO_set
                0x000000004018b65a                BIO_new
                0x000000004018b6ce                BIO_free
                0x000000004018b779                BIO_vfree
                0x000000004018b787                BIO_clear_flags
                0x000000004018b78d                BIO_test_flags
                0x000000004018b793                BIO_set_flags
                0x000000004018b797                BIO_get_callback
                0x000000004018b79c                BIO_set_callback
                0x000000004018b7a1                BIO_set_callback_arg
                0x000000004018b7a6                BIO_get_callback_arg
                0x000000004018b7ab                BIO_method_name
                0x000000004018b7b3                BIO_method_type
                0x000000004018b7b9                BIO_read
                0x000000004018b8a2                BIO_write
                0x000000004018b996                BIO_puts
                0x000000004018ba72                BIO_gets
                0x000000004018bb55                BIO_indent
                0x000000004018bb9b                BIO_ctrl
                0x000000004018bc51                BIO_int_ctrl
                0x000000004018bc68                BIO_ptr_ctrl
                0x000000004018bc95                BIO_callback_ctrl
                0x000000004018bd55                BIO_ctrl_pending
                0x000000004018bd72                BIO_ctrl_wpending
                0x000000004018bd8f                BIO_push
                0x000000004018bdd2                BIO_pop
                0x000000004018be39                BIO_get_retry_BIO
                0x000000004018be62                BIO_get_retry_reason
                0x000000004018be66                BIO_find_type
                0x000000004018beab                BIO_next
                0x000000004018bebb                BIO_free_all
                0x000000004018beea                BIO_dup_chain
                0x000000004018bfd6                BIO_copy_next_retry
                0x000000004018bfea                BIO_get_ex_new_index
                0x000000004018c00c                BIO_set_ex_data
                0x000000004018c01e                BIO_get_ex_data
                0x000000004018c030                BIO_number_read
                0x000000004018c040                BIO_number_written
                0x000000004018c18c                BN_set_params
                0x000000004018c218                BN_get_params
                0x000000004018c24b                BN_value_one
                0x000000004018c251                BN_options
                0x000000004018c29c                BN_num_bits_word
                0x000000004018c2f2                BN_num_bits
                0x000000004018c313                BN_clear_free
                0x000000004018c36a                BN_free
                0x000000004018c3a6                BN_init
                0x000000004018c3be                BN_new
                0x000000004018c429                bn_expand2
                0x000000004018c469                BN_copy
                0x000000004018c540                BN_dup
                0x000000004018c593                bn_dup_expand
                0x000000004018c5fe                BN_swap
                0x000000004018c65c                BN_clear
                0x000000004018c68c                BN_get_word
                0x000000004018c6aa                BN_set_word
                0x000000004018c6fd                BN_bin2bn
                0x000000004018c82c                BN_bn2bin
                0x000000004018c894                BN_ucmp
                0x000000004018c8eb                BN_cmp
                0x000000004018c99d                BN_set_bit
                0x000000004018ca4a                BN_clear_bit
                0x000000004018cacd                BN_is_bit_set
                0x000000004018cb0c                BN_mask_bits
                0x000000004018cb9b                BN_set_negative
                0x000000004018cbb5                bn_cmp_words
                0x000000004018cc13                bn_cmp_part_words
                0x000000004018cca0                BN_bn2hex
                0x000000004018cd84                BN_bn2dec
                0x000000004018cf82                BN_hex2bn
                0x000000004018d15f                BN_dec2bn
                0x000000004018d303                BN_asc2bn
                0x000000004018d36a                BN_print
                0x000000004018d62a                BN_rand
                0x000000004018d647                BN_pseudo_rand
                0x000000004018d836                BN_bntest_rand
                0x000000004018d853                BN_rand_range
                0x000000004018d86c                BN_pseudo_rand_range
                0x000000004018d890                BN_mod_word
                0x000000004018d8e5                BN_div_word
                0x000000004018d9b6                BN_sub_word
                0x000000004018dab1                BN_add_word
                0x000000004018dba8                BN_mul_word
                0x000000004018e023                BIO_s_mem
                0x000000004018e029                BIO_new_mem_buf
                0x000000004018e0a0                BUF_MEM_new
                0x000000004018e0ff                BUF_MEM_free
                0x000000004018e131                BUF_MEM_grow
                0x000000004018e244                BUF_MEM_grow_clean
                0x000000004018e370                BUF_memdup
                0x000000004018e3d8                BUF_strlcpy
                0x000000004018e43b                BUF_strndup
                0x000000004018e4a9                BUF_strdup
                0x000000004018e4ca                BUF_strlcat
                0x000000004018e505                BUF_reverse
                0x000000004018e560                CRYPTO_get_new_lockid
                0x000000004018e602                CRYPTO_num_locks
                0x000000004018e608                CRYPTO_get_dynlock_create_callback
                0x000000004018e610                CRYPTO_get_dynlock_lock_callback
                0x000000004018e618                CRYPTO_get_dynlock_destroy_callback
                0x000000004018e620                CRYPTO_set_dynlock_create_callback
                0x000000004018e628                CRYPTO_set_dynlock_lock_callback
                0x000000004018e630                CRYPTO_set_dynlock_destroy_callback
                0x000000004018e638                CRYPTO_get_locking_callback
                0x000000004018e640                CRYPTO_get_add_lock_callback
                0x000000004018e648                CRYPTO_set_locking_callback
                0x000000004018e650                CRYPTO_set_add_lock_callback
                0x000000004018e658                CRYPTO_THREADID_set_numeric
                0x000000004018e67e                CRYPTO_THREADID_set_pointer
                0x000000004018e6a7                CRYPTO_THREADID_set_callback
                0x000000004018e6c1                CRYPTO_THREADID_get_callback
                0x000000004018e6c9                CRYPTO_THREADID_current
                0x000000004018e704                CRYPTO_THREADID_cmp
                0x000000004018e717                CRYPTO_THREADID_cpy
                0x000000004018e72a                CRYPTO_THREADID_hash
                0x000000004018e72f                CRYPTO_get_id_callback
                0x000000004018e737                CRYPTO_set_id_callback
                0x000000004018e73f                CRYPTO_thread_id
                0x000000004018e75c                CRYPTO_get_lock_name
                0x000000004018e7a4                OPENSSL_ia32cap_loc
                0x000000004018e7aa                OPENSSL_cpuid_setup
                0x000000004018e7ac                OPENSSL_showfatal
                0x000000004018e801                OPENSSL_isservice
                0x000000004018e807                OpenSSLDie
                0x000000004018e82c                CRYPTO_lock
                0x000000004018e8a0                CRYPTO_get_new_dynlockid
                0x000000004018eab8                CRYPTO_destroy_dynlockid
                0x000000004018ebaf                CRYPTO_get_dynlock_value
                0x000000004018ec41                CRYPTO_add_lock
                0x000000004018ec9e                OPENSSL_stderr
                0x000000004018eca4                CRYPTO_memcmp
                0x000000004018f372                ERR_get_implementation
                0x000000004018f387                ERR_set_implementation
                0x000000004018f3e3                ERR_load_ERR_strings
                0x000000004018f513                ERR_load_strings
                0x000000004018f534                ERR_unload_strings
                0x000000004018f575                ERR_free_strings
                0x000000004018f58d                ERR_get_string_table
                0x000000004018f5a9                ERR_get_err_state_table
                0x000000004018f5c6                ERR_release_err_state_table
                0x000000004018f5de                ERR_lib_error_string
                0x000000004018f618                ERR_func_error_string
                0x000000004018f652                ERR_reason_error_string
                0x000000004018f6b1                ERR_error_string_n
                0x000000004018f804                ERR_error_string
                0x000000004018f826                ERR_remove_thread_state
                0x000000004018f861                ERR_remove_state
                0x000000004018f874                ERR_get_state
                0x000000004018f96e                ERR_put_error
                0x000000004018fa5d                ERR_clear_error
                0x000000004018fd00                ERR_get_error
                0x000000004018fd2e                ERR_get_error_line
                0x000000004018fd58                ERR_get_error_line_data
                0x000000004018fd7c                ERR_peek_error
                0x000000004018fdaa                ERR_peek_error_line
                0x000000004018fdd4                ERR_peek_error_line_data
                0x000000004018fdf8                ERR_peek_last_error
                0x000000004018fe26                ERR_peek_last_error_line
                0x000000004018fe50                ERR_peek_last_error_line_data
                0x000000004018fe74                ERR_get_next_error_library
                0x000000004018fe8c                ERR_set_error_data
                0x000000004018fef2                ERR_add_error_data
                0x000000004019001f                ERR_set_mark
                0x000000004019004f                ERR_pop_to_mark
                0x0000000040190110                ERR_load_crypto_strings
                0x00000000401901aa                ERR_load_EVP_strings
                0x00000000401905b3                CRYPTO_get_ex_data_implementation
                0x00000000401905da                CRYPTO_set_ex_data_implementation
                0x0000000040190636                CRYPTO_ex_data_new_class
                0x0000000040190657                CRYPTO_cleanup_all_ex_data
                0x0000000040190679                CRYPTO_get_ex_new_index
                0x00000000401906d1                CRYPTO_new_ex_data
                0x0000000040190703                CRYPTO_dup_ex_data
                0x0000000040190735                CRYPTO_free_ex_data
                0x0000000040190767                CRYPTO_set_ex_data
                0x000000004019081e                CRYPTO_get_ex_data
                0x0000000040190de4                lh_strhash
                0x0000000040190e56                lh_new
                0x0000000040190fb0                lh_free
                0x0000000040191009                lh_insert
                0x0000000040191191                lh_delete
                0x00000000401912ce                lh_retrieve
                0x000000004019130d                lh_doall
                0x0000000040191360                lh_doall_arg
                0x00000000401913b4                lh_num_items
                0x00000000401913fd                CRYPTO_set_mem_functions
                0x000000004019146e                CRYPTO_set_mem_ex_functions
                0x00000000401914df                CRYPTO_set_locked_mem_functions
                0x000000004019151a                CRYPTO_set_locked_mem_ex_functions
                0x0000000040191555                CRYPTO_set_mem_debug_functions
                0x000000004019158a                CRYPTO_get_mem_functions
                0x00000000401915db                CRYPTO_get_mem_ex_functions
                0x0000000040191628                CRYPTO_get_locked_mem_functions
                0x0000000040191659                CRYPTO_get_locked_mem_ex_functions
                0x0000000040191688                CRYPTO_get_mem_debug_functions
                0x00000000401916d5                CRYPTO_malloc_locked
                0x0000000040191785                CRYPTO_free_locked
                0x00000000401917bf                CRYPTO_malloc
                0x000000004019186f                CRYPTO_strdup
                0x00000000401918a5                CRYPTO_realloc
                0x000000004019193b                CRYPTO_realloc_clean
                0x0000000040191a16                CRYPTO_free
                0x0000000040191a50                CRYPTO_remalloc
                0x0000000040191a70                CRYPTO_set_mem_debug_options
                0x0000000040191a88                CRYPTO_get_mem_debug_options
                0x0000000040191aa5                OPENSSL_cleanse
                0x0000000040191ed1                CRYPTO_mem_ctrl
                0x0000000040192053                CRYPTO_is_mem_check_on
                0x00000000401920c8                CRYPTO_dbg_set_options
                0x00000000401920d0                CRYPTO_dbg_get_options
                0x00000000401920d8                CRYPTO_push_info_
                0x00000000401921a2                CRYPTO_pop_info
                0x00000000401921d7                CRYPTO_remove_all_info
                0x000000004019220d                CRYPTO_dbg_malloc
                0x0000000040192392                CRYPTO_dbg_free
                0x0000000040192405                CRYPTO_dbg_realloc
                0x00000000401924a1                CRYPTO_mem_leaks
                0x00000000401925c1                CRYPTO_mem_leaks_cb
                0x0000000040192621                ERR_load_OBJ_strings
                0x0000000040192659                ERR_load_OCSP_strings
                0x0000000040192691                ERR_load_PEM_strings
                0x00000000401926c9                ERR_load_PKCS12_strings
                0x0000000040192701                ERR_load_PKCS7_strings
                0x0000000040192739                ERR_load_RAND_strings
                0x0000000040192780                RAND_set_rand_method
                0x000000004019278d                RAND_get_rand_method
                0x00000000401927bb                RAND_cleanup
                0x00000000401927e4                RAND_seed
                0x000000004019280f                RAND_add
                0x000000004019283d                RAND_bytes
                0x0000000040192877                RAND_pseudo_bytes
                0x00000000401928b1                RAND_status
                0x00000000401928db                RSA_generate_key
                0x000000004019299b                ERR_load_RSA_strings
                0x00000000401929e0                RSA_generate_key_ex
                0x0000000040192f50                RSA_set_default_method
                0x0000000040192f58                RSA_get_default_method
                0x0000000040192f86                RSA_get_method
                0x0000000040192f8b                RSA_set_method
                0x0000000040192fc4                RSA_new_method
                0x000000004019311c                RSA_new
                0x000000004019312f                RSA_free
                0x0000000040193232                RSA_up_ref
                0x0000000040193262                RSA_get_ex_new_index
                0x0000000040193284                RSA_set_ex_data
                0x0000000040193296                RSA_get_ex_data
                0x00000000401932a8                RSA_size
                0x00000000401932c6                RSA_public_encrypt
                0x00000000401932d6                RSA_private_encrypt
                0x00000000401932e6                RSA_private_decrypt
                0x00000000401932f6                RSA_public_decrypt
                0x0000000040193306                RSA_flags
                0x0000000040193319                RSA_blinding_off
                0x0000000040193346                RSA_setup_blinding
                0x00000000401935e6                RSA_blinding_on
                0x0000000040193636                RSA_memory_lock
                0x000000004019494d                SHA1_Update
                0x0000000040194a59                SHA1_Transform
                0x0000000040194a65                SHA1_Final
                0x0000000040194b2e                SHA1_Init
                0x0000000040196233                SHA224_Init
                0x000000004019628b                SHA256_Init
                0x00000000401962e3                SHA256_Update
                0x00000000401963ef                SHA224_Update
                0x00000000401963fd                SHA256_Transform
                0x0000000040196409                SHA256_Final
                0x0000000040196535                SHA224
                0x000000004019658c                SHA256
                0x00000000401965e3                SHA224_Final
                0x0000000040197c96                SHA384_Init
                0x0000000040197d2f                SHA512_Init
                0x0000000040197dc8                SHA512_Final
                0x0000000040197ffd                SHA384_Final
                0x000000004019800b                SHA512_Update
                0x00000000401980f2                SHA384_Update
                0x0000000040198100                SHA512_Transform
                0x000000004019810c                SHA384
                0x0000000040198171                SHA512
                0x00000000401981e0                sk_set_cmp_func
                0x00000000401981f5                sk_new
                0x0000000040198288                sk_new_null
                0x000000004019829b                sk_insert
                0x000000004019833d                sk_delete
                0x0000000040198395                sk_delete_ptr
                0x00000000401983dc                sk_push
                0x00000000401983ec                sk_unshift
                0x00000000401983ff                sk_shift
                0x0000000040198421                sk_pop
                0x0000000040198442                sk_zero
                0x000000004019846a                sk_free
                0x000000004019848b                sk_dup
                0x0000000040198518                sk_pop_free
                0x0000000040198559                sk_num
                0x0000000040198567                sk_value
                0x0000000040198591                sk_set
                0x00000000401985be                sk_sort
                0x0000000040198696                sk_find
                0x00000000401986a9                sk_find_ex
                0x00000000401986bc                sk_is_sorted
                0x00000000401986cb                ERR_load_UI_strings
                0x0000000040198703                ERR_load_X509V3_strings
                0x0000000040198740                X509_issuer_and_serial_hash
                0x0000000040198812                X509_CRL_match
                0x000000004019882d                X509_get_issuer_name
                0x0000000040198835                X509_get_subject_name
                0x000000004019883d                X509_get_serialNumber
                0x0000000040198845                X509_cmp
                0x0000000040198891                X509_NAME_cmp
                0x0000000040198909                X509_issuer_and_serial_cmp
                0x000000004019893c                X509_issuer_name_cmp
                0x0000000040198958                X509_subject_name_cmp
                0x0000000040198974                X509_CRL_cmp
                0x0000000040198990                X509_NAME_hash
                0x00000000401989f6                X509_issuer_name_hash
                0x0000000040198a0b                X509_subject_name_hash
                0x0000000040198a20                X509_NAME_hash_old
                0x0000000040198a86                X509_issuer_name_hash_old
                0x0000000040198a9b                X509_subject_name_hash_old
                0x0000000040198ab0                X509_find_by_issuer_and_serial
                0x0000000040198b2e                X509_find_by_subject
                0x0000000040198b89                X509_get_pubkey
                0x0000000040198bb6                X509_get0_pubkey_bitstr
                0x0000000040198bcd                X509_check_private_key
                0x0000000040198c84                ERR_load_X509_strings
                0x0000000040198cbc                X509_NAME_oneline
                0x000000004019907a                X509_verify
                0x000000004019909b                X509_REQ_verify
                0x00000000401990bc                NETSCAPE_SPKI_verify
                0x00000000401990dd                X509_sign
                0x0000000040199113                X509_REQ_sign
                0x000000004019913d                X509_CRL_sign
                0x0000000040199173                NETSCAPE_SPKI_sign
                0x000000004019919d                d2i_X509_bio
                0x00000000401991b6                i2d_X509_bio
                0x00000000401991cf                d2i_X509_CRL_bio
                0x00000000401991e8                i2d_X509_CRL_bio
                0x0000000040199201                d2i_PKCS7_bio
                0x000000004019921a                i2d_PKCS7_bio
                0x0000000040199233                d2i_X509_REQ_bio
                0x000000004019924c                i2d_X509_REQ_bio
                0x0000000040199265                d2i_RSAPrivateKey_bio
                0x000000004019927e                i2d_RSAPrivateKey_bio
                0x0000000040199297                d2i_RSAPublicKey_bio
                0x00000000401992b0                d2i_RSA_PUBKEY_bio
                0x00000000401992ce                i2d_RSAPublicKey_bio
                0x00000000401992e7                i2d_RSA_PUBKEY_bio
                0x0000000040199300                d2i_DSAPrivateKey_bio
                0x000000004019931e                i2d_DSAPrivateKey_bio
                0x0000000040199337                d2i_DSA_PUBKEY_bio
                0x0000000040199355                i2d_DSA_PUBKEY_bio
                0x000000004019936e                d2i_EC_PUBKEY_bio
                0x000000004019938c                i2d_EC_PUBKEY_bio
                0x00000000401993a5                d2i_ECPrivateKey_bio
                0x00000000401993c3                i2d_ECPrivateKey_bio
                0x00000000401993dc                X509_pubkey_digest
                0x000000004019941b                X509_digest
                0x0000000040199437                X509_CRL_digest
                0x0000000040199453                X509_REQ_digest
                0x000000004019946f                X509_NAME_digest
                0x000000004019948b                PKCS7_ISSUER_AND_SERIAL_digest
                0x00000000401994a7                d2i_PKCS8_bio
                0x00000000401994c5                i2d_PKCS8_bio
                0x00000000401994de                d2i_PKCS8_PRIV_KEY_INFO_bio
                0x00000000401994fc                i2d_PKCS8_PRIV_KEY_INFO_bio
                0x0000000040199515                i2d_PKCS8PrivateKeyInfo_bio
                0x0000000040199551                i2d_PrivateKey_bio
                0x000000004019956a                d2i_PrivateKey_bio
                0x0000000040199588                i2d_PUBKEY_bio
                0x00000000401995a1                d2i_PUBKEY_bio
                0x0000000040199b91                d2i_X509_REVOKED
                0x0000000040199ba4                i2d_X509_REVOKED
                0x0000000040199bb7                X509_REVOKED_new
                0x0000000040199bca                X509_REVOKED_free
                0x0000000040199bdd                d2i_X509_CRL_INFO
                0x0000000040199bf0                i2d_X509_CRL_INFO
                0x0000000040199c03                X509_CRL_INFO_new
                0x0000000040199c16                X509_CRL_INFO_free
                0x0000000040199c29                d2i_X509_CRL
                0x0000000040199c3c                i2d_X509_CRL
                0x0000000040199c4f                X509_CRL_new
                0x0000000040199c62                X509_CRL_free
                0x0000000040199c75                X509_CRL_dup
                0x0000000040199c8b                X509_CRL_add0_revoked
                0x0000000040199cfb                X509_CRL_verify
                0x0000000040199d19                X509_CRL_get0_by_serial
                0x0000000040199d3d                X509_CRL_get0_by_cert
                0x0000000040199d8a                X509_CRL_set_default_method
                0x0000000040199d9e                X509_CRL_METHOD_new
                0x0000000040199dee                X509_CRL_METHOD_free
                0x0000000040199e02                X509_CRL_set_meth_data
                0x0000000040199e07                X509_CRL_get_meth_data
                0x0000000040199e0c                d2i_X509_EXTENSION
                0x0000000040199e1f                i2d_X509_EXTENSION
                0x0000000040199e32                X509_EXTENSION_new
                0x0000000040199e45                X509_EXTENSION_free
                0x0000000040199e58                d2i_X509_EXTENSIONS
                0x0000000040199e6b                i2d_X509_EXTENSIONS
                0x0000000040199e7e                X509_EXTENSION_dup
                0x0000000040199ea0                X509_NAME_ENTRY_free
                0x000000004019a078                d2i_X509_NAME_ENTRY
                0x000000004019a08b                i2d_X509_NAME_ENTRY
                0x000000004019a09e                X509_NAME_ENTRY_new
                0x000000004019a584                X509_NAME_ENTRY_dup
                0x000000004019a59a                d2i_X509_NAME
                0x000000004019a5ad                i2d_X509_NAME
                0x000000004019a5c0                X509_NAME_new
                0x000000004019a5d3                X509_NAME_free
                0x000000004019a784                X509_NAME_dup
                0x000000004019a79a                X509_NAME_set
                0x000000004019a815                d2i_X509_PUBKEY
                0x000000004019a828                i2d_X509_PUBKEY
                0x000000004019a83b                X509_PUBKEY_new
                0x000000004019a84e                X509_PUBKEY_free
                0x000000004019a861                X509_PUBKEY_set
                0x000000004019a93e                X509_PUBKEY_get
                0x000000004019aaf9                d2i_PUBKEY
                0x000000004019ab55                i2d_PUBKEY
                0x000000004019aba2                d2i_RSA_PUBKEY
                0x000000004019ac23                i2d_RSA_PUBKEY
                0x000000004019ac91                d2i_DSA_PUBKEY
                0x000000004019ad12                i2d_DSA_PUBKEY
                0x000000004019ad80                d2i_EC_PUBKEY
                0x000000004019ae01                i2d_EC_PUBKEY
                0x000000004019ae6f                X509_PUBKEY_set0_param
                0x000000004019aed1                X509_PUBKEY_get0_param
                0x000000004019af2a                d2i_X509_REQ_INFO
                0x000000004019af3d                i2d_X509_REQ_INFO
                0x000000004019af50                X509_REQ_INFO_new
                0x000000004019af63                X509_REQ_INFO_free
                0x000000004019af76                d2i_X509_REQ
                0x000000004019af89                i2d_X509_REQ
                0x000000004019af9c                X509_REQ_new
                0x000000004019afaf                X509_REQ_free
                0x000000004019afc2                X509_REQ_dup
                0x000000004019afd8                d2i_X509_SIG
                0x000000004019afeb                i2d_X509_SIG
                0x000000004019affe                X509_SIG_new
                0x000000004019b011                X509_SIG_free
                0x000000004019b024                d2i_NETSCAPE_SPKAC
                0x000000004019b037                i2d_NETSCAPE_SPKAC
                0x000000004019b04a                NETSCAPE_SPKAC_new
                0x000000004019b05d                NETSCAPE_SPKAC_free
                0x000000004019b070                d2i_NETSCAPE_SPKI
                0x000000004019b083                i2d_NETSCAPE_SPKI
                0x000000004019b096                NETSCAPE_SPKI_new
                0x000000004019b0a9                NETSCAPE_SPKI_free
                0x000000004019b1cb                d2i_X509_CINF
                0x000000004019b1de                i2d_X509_CINF
                0x000000004019b1f1                X509_CINF_new
                0x000000004019b204                X509_CINF_free
                0x000000004019b217                d2i_X509
                0x000000004019b22a                i2d_X509
                0x000000004019b23d                X509_new
                0x000000004019b250                X509_free
                0x000000004019b263                X509_dup
                0x000000004019b279                X509_get_ex_new_index
                0x000000004019b29b                X509_set_ex_data
                0x000000004019b2ad                X509_get_ex_data
                0x000000004019b2bf                d2i_X509_AUX
                0x000000004019b323                i2d_X509_AUX
                0x000000004019b351                d2i_X509_CERT_AUX
                0x000000004019b364                i2d_X509_CERT_AUX
                0x000000004019b377                X509_CERT_AUX_new
                0x000000004019b3be                X509_CERT_AUX_free
                0x000000004019b3d1                X509_alias_set1
                0x000000004019b46f                X509_keyid_set1
                0x000000004019b50d                X509_alias_get0
                0x000000004019b547                X509_keyid_get0
                0x000000004019b581                X509_add1_trust_object
                0x000000004019b5e2                X509_add1_reject_object
                0x000000004019b646                X509_trust_clear
                0x000000004019b678                X509_reject_clear
                0x000000004019b6ac                d2i_X509_CERT_PAIR
                0x000000004019b6bf                i2d_X509_CERT_PAIR
                0x000000004019b6d2                X509_CERT_PAIR_new
                0x000000004019b6e5                X509_CERT_PAIR_free
                0x000000004019b6f8                ERR_load_TS_strings
                0x000000004019b730                ERR_load_CMS_strings
                0x000000004019b770                chelp_snprintf
                0x000000004019b7b5                chelp_sprintf
                0x000000004019b805                chelp_print
                0x000000004019b820                chelp_printf
                0x000000004019b8b0                chelp_mod_64_32_32
                0x000000004019b8c0                chelp_div_64_32_32
                0x000000004019b8ce                chelp_div_64_32_64
                0x000000004019b8dc                chelp_mul_64_64_64
                0x000000004019b8e4                BIO_printf
                0x000000004019b92a                BIO_snprintf
                0x000000004019b968                chelp_abort
                0x000000004019b97b                RAND_poll
                0x000000004019b99d                InitCryptoLibrary
                0x000000004019ba10                chelp_malloc
                0x000000004019ba2a                chelp_realloc
                0x000000004019ba51                chelp_free
                0x000000004019ba65                chelp_swap
                0x000000004019ba93                chelp_qsort
                0x000000004019bdcd                chelp_bsearch
                0x000000004019bea4                chelp_memchr
                0x000000004019bee1                chelp_memmove
                0x000000004019bf5c                chelp_memcmp
                0x000000004019bfc3                chelp_memcpy
                0x000000004019bfec                chelp_memset
                0x000000004019c020                chelp_isupper
                0x000000004019c02e                chelp_islower
                0x000000004019c03c                chelp_toupper
                0x000000004019c043                chelp_tolower
                0x000000004019c04a                chelp_isspace
                0x000000004019c062                chelp_isdigit
                0x000000004019c070                chelp_isxdigit
                0x000000004019c08f                chelp_isalpha
                0x000000004019c0a0                chelp_isalnum
                0x000000004019c0bc                chelp_strtoul_ex
                0x000000004019c2a6                chelp_strtol
                0x000000004019c2b2                chelp_strtoul
                0x000000004019c2be                chelp_strcpy
                0x000000004019c2e8                chelp_strncpy
                0x000000004019c354                chelp_strcat
                0x000000004019c393                chelp_strcmp
                0x000000004019c3f0                chelp_strncmp
                0x000000004019c535                chelp_stricmp
                0x000000004019c570                chelp_strchr
                0x000000004019c5a6                chelp_strrchr
                0x000000004019c5d2                chelp_strlen
                0x000000004019c601                chelp_strncasecmp
                0x000000004019c652                decryptcfg
                0x000000004019ca1c                ASN1_d2i_bio
                0x000000004019ca7d                ASN1_item_d2i_bio
                0x000000004019cae4                ASN1_digest
                0x000000004019cb97                ASN1_item_digest
                0x000000004019cc07                ASN1_dup
                0x000000004019ccb0                ASN1_item_dup
                0x000000004019cd3a                ASN1_ENUMERATED_set
                0x000000004019ce50                ASN1_ENUMERATED_get
                0x000000004019ced2                BN_to_ASN1_ENUMERATED
                0x000000004019cfc1                ASN1_ENUMERATED_to_BN
                0x000000004019d030                ASN1_i2d_bio
                0x000000004019d0e6                ASN1_item_i2d_bio
                0x000000004019d190                ASN1_INTEGER_dup
                0x000000004019d19e                ASN1_INTEGER_cmp
                0x000000004019d1d1                i2c_ASN1_INTEGER
                0x000000004019d353                c2i_ASN1_INTEGER
                0x000000004019d52b                d2i_ASN1_UINTEGER
                0x000000004019d6a7                ASN1_INTEGER_set
                0x000000004019d7bd                ASN1_INTEGER_get
                0x000000004019d842                BN_to_ASN1_INTEGER
                0x000000004019d947                ASN1_INTEGER_to_BN
                0x000000004019d9b0                i2d_ASN1_OBJECT
                0x000000004019da40                a2d_ASN1_OBJECT
                0x000000004019df37                i2t_ASN1_OBJECT
                0x000000004019df4a                i2a_ASN1_OBJECT
                0x000000004019e00f                ASN1_OBJECT_new
                0x000000004019e083                ASN1_OBJECT_free
                0x000000004019e0ef                c2i_ASN1_OBJECT
                0x000000004019e28f                d2i_ASN1_OBJECT
                0x000000004019e31d                ASN1_OBJECT_create
                0x000000004019e350                ASN1_sign
                0x000000004019e5ec                ASN1_item_sign
                0x000000004019eff1                X509_NAME_print_ex
                0x000000004019f42d                ASN1_STRING_print_ex
                0x000000004019f446                ASN1_STRING_to_UTF8
                0x000000004019f4d0                d2i_ASN1_TIME
                0x000000004019f4e3                i2d_ASN1_TIME
                0x000000004019f4f6                ASN1_TIME_new
                0x000000004019f509                ASN1_TIME_free
                0x000000004019f51c                ASN1_TIME_adj
                0x000000004019f5ca                ASN1_TIME_set
                0x000000004019f5e2                ASN1_TIME_check
                0x000000004019f609                ASN1_TIME_to_generalizedtime
                0x000000004019f713                ASN1_TIME_set_string
                0x000000004019f790                ASN1_UTCTIME_check
                0x000000004019f9a2                ASN1_UTCTIME_set_string
                0x000000004019fa0b                ASN1_UTCTIME_adj
                0x000000004019fb7b                ASN1_UTCTIME_set
                0x000000004019fb93                ASN1_UTCTIME_cmp_time_t
                0x000000004019fd20                UTF8_getc
                0x00000000401a0071                UTF8_putc
                0x00000000401a02c0                ASN1_verify
                0x00000000401a041f                ASN1_item_verify
                0x00000000401a0636                AES_cbc_encrypt
                0x00000000401a065c                ERR_load_ASN1_strings
                0x00000000401a0729                ASN1_check_infinite_end
                0x00000000401a0730                ASN1_const_check_infinite_end
                0x00000000401a0737                ASN1_get_object
                0x00000000401a08d9                ASN1_put_object
                0x00000000401a09ff                ASN1_put_eoc
                0x00000000401a0a16                ASN1_object_size
                0x00000000401a0a45                asn1_Finish
                0x00000000401a0a4c                asn1_const_Finish
                0x00000000401a0a53                asn1_GetSequence
                0x00000000401a0ae1                ASN1_STRING_set
                0x00000000401a0bc4                ASN1_STRING_copy
                0x00000000401a0c03                ASN1_STRING_set0
                0x00000000401a0c28                ASN1_STRING_type_new
                0x00000000401a0c85                ASN1_STRING_new
                0x00000000401a0c98                ASN1_STRING_free
                0x00000000401a0cbf                ASN1_STRING_dup
                0x00000000401a0d11                ASN1_STRING_cmp
                0x00000000401a0d49                asn1_add_error
                0x00000000401a0db0                ASN1_STRING_length
                0x00000000401a0db3                ASN1_STRING_length_set
                0x00000000401a0db6                ASN1_STRING_type
                0x00000000401a0dba                ASN1_STRING_data
                0x00000000401a0dc0                ASN1_tag2str
                0x00000000401a19e2                ASN1_parse
                0x00000000401a1a0f                ASN1_parse_dump
                0x00000000401a1a52                BIO_dump_indent_cb
                0x00000000401a1deb                BIO_dump_cb
                0x00000000401a1dff                BIO_dump
                0x00000000401a1e1a                BIO_dump_indent
                0x00000000401a1e38                ERR_load_BIO_strings
                0x00000000401a1e70                BN_uadd
                0x00000000401a1fa6                BN_usub
                0x00000000401a219d                BN_add
                0x00000000401a222e                BN_sub
                0x00000000401a2320                bn_mul_add_words
                0x00000000401a255e                bn_mul_words
                0x00000000401a275d                bn_sqr_words
                0x00000000401a289b                bn_div_words
                0x00000000401a29b5                bn_add_words
                0x00000000401a2aa2                bn_sub_words
                0x00000000401a2bae                bn_mul_comba8
                0x00000000401a4501                bn_mul_comba4
                0x00000000401a4b40                bn_sqr_comba8
                0x00000000401a5c2a                bn_sqr_comba4
                0x00000000401a6050                BN_BLINDING_free
                0x00000000401a609a                BN_BLINDING_new
                0x00000000401a6175                BN_BLINDING_invert_ex
                0x00000000401a61d5                BN_BLINDING_invert
                0x00000000401a61ee                BN_BLINDING_get_thread_id
                0x00000000401a61f3                BN_BLINDING_set_thread_id
                0x00000000401a61f8                BN_BLINDING_thread_id
                0x00000000401a61fd                BN_BLINDING_get_flags
                0x00000000401a6202                BN_BLINDING_set_flags
                0x00000000401a6207                BN_BLINDING_create_param
                0x00000000401a6391                BN_BLINDING_update
                0x00000000401a6484                BN_BLINDING_convert_ex
                0x00000000401a652f                BN_BLINDING_convert
                0x00000000401a6548                BN_CTX_init
                0x00000000401a65c7                BN_CTX_new
                0x00000000401a665f                BN_CTX_free
                0x00000000401a66d4                BN_CTX_start
                0x00000000401a67a3                BN_CTX_end
                0x00000000401a680c                BN_CTX_get
                0x00000000401a6951                BN_div
                0x00000000401a7367                ERR_load_BN_strings
                0x00000000401a746f                BN_exp
                0x00000000401a75fe                BN_mod_exp_recp
                0x00000000401a7a1e                BN_mod_exp_mont_consttime
                0x00000000401a7ffc                BN_mod_exp_mont
                0x00000000401a84f2                BN_mod_exp_mont_word
                0x00000000401a8993                BN_mod_exp
                0x00000000401a89e1                BN_mod_exp_simple
                0x00000000401a8dd0                BN_gcd
                0x00000000401a8fdc                BN_mod_inverse
                0x00000000401a99c0                BN_nnmod
                0x00000000401a9a15                BN_mod_add
                0x00000000401a9a41                BN_mod_add_quick
                0x00000000401a9a81                BN_mod_sub
                0x00000000401a9aad                BN_mod_sub_quick
                0x00000000401a9ae2                BN_mod_mul
                0x00000000401a9b8e                BN_mod_sqr
                0x00000000401a9bc2                BN_mod_lshift1
                0x00000000401a9bee                BN_mod_lshift1_quick
                0x00000000401a9c2e                BN_mod_lshift_quick
                0x00000000401a9d1a                BN_mod_lshift
                0x00000000401aa104                BN_mod_mul_montgomery
                0x00000000401aa1ad                BN_from_montgomery
                0x00000000401aa21d                BN_MONT_CTX_init
                0x00000000401aa259                BN_MONT_CTX_new
                0x00000000401aa28a                BN_MONT_CTX_free
                0x00000000401aa2be                BN_MONT_CTX_set
                0x00000000401aa49a                BN_MONT_CTX_copy
                0x00000000401aa514                BN_MONT_CTX_set_locked
                0x00000000401aa5f0                bn_sub_part_words
                0x00000000401aa838                bn_add_part_words
                0x00000000401aab6d                bn_mul_normal
                0x00000000401aacb9                bn_mul_recursive
                0x00000000401ab1e5                bn_mul_high
                0x00000000401ab692                bn_mul_part_recursive
                0x00000000401abbb6                BN_mul
                0x00000000401abf13                bn_mul_low_normal
                0x00000000401abfef                bn_mul_low_recursive
                0x00000000401ac1e9                BN_GENCB_call
                0x00000000401ac23c                BN_is_prime_fasttest_ex
                0x00000000401ac778                BN_generate_prime_ex
                0x00000000401acd4f                BN_is_prime_ex
                0x00000000401acd65                BN_RECP_CTX_init
                0x00000000401acd87                BN_RECP_CTX_new
                0x00000000401acdb8                BN_RECP_CTX_free
                0x00000000401acddf                BN_RECP_CTX_set
                0x00000000401ace28                BN_reciprocal
                0x00000000401acea2                BN_div_recp
                0x00000000401ad127                BN_mod_mul_reciprocal
                0x00000000401ad1db                BN_lshift1
                0x00000000401ad2a3                BN_rshift1
                0x00000000401ad375                BN_lshift
                0x00000000401ad4c9                BN_rshift
                0x00000000401ad640                bn_sqr_normal
                0x00000000401ad71d                bn_sqr_recursive
                0x00000000401ad8cc                BN_sqr
                0x00000000401adabe                ERR_load_BUF_strings
                0x00000000401adaf6                OpenSSL_add_all_ciphers
                0x00000000401adf96                OpenSSL_add_all_digests
                0x00000000401ae0fc                ERR_load_COMP_strings
                0x00000000401ae134                ERR_load_CONF_strings
                0x00000000401ae16c                ERR_load_CRYPTO_strings
                0x00000000401ae1a4                d2i_PrivateKey
                0x00000000401ae2f5                d2i_AutoPrivateKey
                0x00000000401ae403                ERR_load_DH_strings
                0x00000000401ae440                EVP_MD_CTX_init
                0x00000000401ae458                EVP_MD_CTX_create
                0x00000000401ae482                EVP_DigestInit_ex
                0x00000000401ae55d                EVP_DigestInit
                0x00000000401ae585                EVP_DigestUpdate
                0x00000000401ae594                EVP_DigestFinal_ex
                0x00000000401ae615                EVP_MD_CTX_cleanup
                0x00000000401ae6a5                EVP_DigestFinal
                0x00000000401ae6c6                EVP_MD_CTX_copy_ex
                0x00000000401ae7f0                EVP_MD_CTX_copy
                0x00000000401ae813                EVP_Digest
                0x00000000401ae8a0                EVP_MD_CTX_destroy
                0x00000000401ae959                d2i_DSA_SIG
                0x00000000401ae96c                i2d_DSA_SIG
                0x00000000401ae97f                DSA_SIG_new
                0x00000000401ae992                DSA_SIG_free
                0x00000000401ae9a5                d2i_DSAPrivateKey
                0x00000000401ae9b8                i2d_DSAPrivateKey
                0x00000000401ae9cb                d2i_DSAparams
                0x00000000401ae9de                i2d_DSAparams
                0x00000000401ae9f1                d2i_DSAPublicKey
                0x00000000401aea04                i2d_DSAPublicKey
                0x00000000401aea17                DSAparams_dup
                0x00000000401aea2d                ERR_load_DSA_strings
                0x00000000401aea70                DSA_set_default_method
                0x00000000401aea78                DSA_get_default_method
                0x00000000401aeaa6                DSA_set_method
                0x00000000401aeadf                DSA_new_method
                0x00000000401aebec                DSA_new
                0x00000000401aebff                DSA_free
                0x00000000401aecc1                DSA_up_ref
                0x00000000401aecf1                DSA_size
                0x00000000401aed4b                DSA_get_ex_new_index
                0x00000000401aed6d                DSA_set_ex_data
                0x00000000401aed7f                DSA_get_ex_data
                0x00000000401aed91                DSA_dup_DH
                0x00000000401af739                DSA_OpenSSL
                0x00000000401af73f                DSA_do_sign
                0x00000000401af74f                DSA_sign
                0x00000000401af7c0                DSA_sign_setup
                0x00000000401af7d0                ERR_load_DSO_strings
                0x00000000401b051d                EVP_aes_128_cbc
                0x00000000401b0523                EVP_aes_128_cfb128
                0x00000000401b0529                EVP_aes_128_ofb
                0x00000000401b052f                EVP_aes_128_ecb
                0x00000000401b0535                EVP_aes_192_cbc
                0x00000000401b053b                EVP_aes_192_cfb128
                0x00000000401b0541                EVP_aes_192_ofb
                0x00000000401b0547                EVP_aes_192_ecb
                0x00000000401b054d                EVP_aes_256_cbc
                0x00000000401b0553                EVP_aes_256_cfb128
                0x00000000401b0559                EVP_aes_256_ofb
                0x00000000401b055f                EVP_aes_256_ecb
                0x00000000401b0565                EVP_aes_128_cfb1
                0x00000000401b056b                EVP_aes_192_cfb1
                0x00000000401b0571                EVP_aes_256_cfb1
                0x00000000401b0577                EVP_aes_128_cfb8
                0x00000000401b057d                EVP_aes_192_cfb8
                0x00000000401b0583                EVP_aes_256_cfb8
                0x00000000401b0899                EVP_bf_cbc
                0x00000000401b089f                EVP_bf_cfb64
                0x00000000401b08a5                EVP_bf_ofb
                0x00000000401b08ab                EVP_bf_ecb
                0x00000000401b0bc1                EVP_cast5_cbc
                0x00000000401b0bc7                EVP_cast5_cfb64
                0x00000000401b0bcd                EVP_cast5_ofb
                0x00000000401b0bd3                EVP_cast5_ecb
                0x00000000401b11b8                EVP_des_cbc
                0x00000000401b11be                EVP_des_cfb64
                0x00000000401b11c4                EVP_des_ofb
                0x00000000401b11ca                EVP_des_ecb
                0x00000000401b11d0                EVP_des_cfb1
                0x00000000401b11d6                EVP_des_cfb8
                0x00000000401b18bb                EVP_des_ede_cbc
                0x00000000401b18c1                EVP_des_ede_cfb64
                0x00000000401b18c7                EVP_des_ede_ofb
                0x00000000401b18cd                EVP_des_ede_ecb
                0x00000000401b18d3                EVP_des_ede3_cbc
                0x00000000401b18d9                EVP_des_ede3_cfb64
                0x00000000401b18df                EVP_des_ede3_ofb
                0x00000000401b18e5                EVP_des_ede3_ecb
                0x00000000401b18eb                EVP_des_ede3_cfb1
                0x00000000401b18f1                EVP_des_ede3_cfb8
                0x00000000401b18f7                EVP_des_ede
                0x00000000401b18fd                EVP_des_ede3
                0x00000000401b1c61                EVP_idea_cbc
                0x00000000401b1c67                EVP_idea_cfb64
                0x00000000401b1c6d                EVP_idea_ofb
                0x00000000401b1c73                EVP_idea_ecb
                0x00000000401b2195                EVP_rc2_cbc
                0x00000000401b219b                EVP_rc2_cfb64
                0x00000000401b21a1                EVP_rc2_ofb
                0x00000000401b21a7                EVP_rc2_ecb
                0x00000000401b21ad                EVP_rc2_64_cbc
                0x00000000401b21b3                EVP_rc2_40_cbc
                0x00000000401b2204                EVP_rc4
                0x00000000401b220a                EVP_rc4_40
                0x00000000401b2380                EVP_desx_cbc
                0x00000000401b2c7a                EC_GROUP_get_basis_type
                0x00000000401b2cd4                EC_GROUP_get_trinomial_basis
                0x00000000401b2d56                EC_GROUP_get_pentanomial_basis
                0x00000000401b2e1a                X9_62_PENTANOMIAL_new
                0x00000000401b2e2d                X9_62_PENTANOMIAL_free
                0x00000000401b2e40                X9_62_CHARACTERISTIC_TWO_new
                0x00000000401b2e53                X9_62_CHARACTERISTIC_TWO_free
                0x00000000401b2e66                ECPARAMETERS_new
                0x00000000401b2e79                ECPARAMETERS_free
                0x00000000401b2e8c                d2i_ECPKPARAMETERS
                0x00000000401b2e9f                i2d_ECPKPARAMETERS
                0x00000000401b2eb2                ECPKPARAMETERS_new
                0x00000000401b2ec5                ECPKPARAMETERS_free
                0x00000000401b3add                d2i_EC_PRIVATEKEY
                0x00000000401b3af0                i2d_EC_PRIVATEKEY
                0x00000000401b3b03                EC_PRIVATEKEY_new
                0x00000000401b3b16                EC_PRIVATEKEY_free
                0x00000000401b3b29                d2i_ECPKParameters
                0x00000000401b3bd5                i2d_ECPKParameters
                0x00000000401b3c66                d2i_ECPrivateKey
                0x00000000401b3f1d                i2d_ECPrivateKey
                0x00000000401b428b                i2d_ECParameters
                0x00000000401b42c6                d2i_ECParameters
                0x00000000401b43b7                o2i_ECPublicKey
                0x00000000401b4498                i2o_ECPublicKey
                0x00000000401b45f0                EC_GROUP_new_by_curve_name
                0x00000000401b4b19                EC_get_builtin_curves
                0x00000000401b4b65                EC_GROUP_new_curve_GFp
                0x00000000401b4c48                EC_GROUP_new_curve_GF2m
                0x00000000401b4cac                ERR_load_EC_strings
                0x00000000401b4cf0                EC_KEY_new
                0x00000000401b4d73                EC_KEY_free
                0x00000000401b4de8                EC_KEY_new_by_curve_name
                0x00000000401b4e2d                EC_KEY_copy
                0x00000000401b4fe0                EC_KEY_dup
                0x00000000401b5027                EC_KEY_up_ref
                0x00000000401b5057                EC_KEY_generate_key
                0x00000000401b5212                EC_KEY_check_key
                0x00000000401b54a2                EC_KEY_get0_group
                0x00000000401b54a7                EC_KEY_set_group
                0x00000000401b54dd                EC_KEY_get0_private_key
                0x00000000401b54e2                EC_KEY_set_private_key
                0x00000000401b5518                EC_KEY_get0_public_key
                0x00000000401b551d                EC_KEY_set_public_key
                0x00000000401b5557                EC_KEY_get_enc_flags
                0x00000000401b555b                EC_KEY_set_enc_flags
                0x00000000401b555f                EC_KEY_get_conv_form
                0x00000000401b5563                EC_KEY_set_conv_form
                0x00000000401b557e                EC_KEY_get_key_method_data
                0x00000000401b55e9                EC_KEY_insert_key_method_data
                0x00000000401b5679                EC_KEY_set_asn1_flag
                0x00000000401b5691                EC_KEY_precompute_mult
                0x00000000401b56b0                EC_GROUP_new
                0x00000000401b57c7                EC_GROUP_method_of
                0x00000000401b57cb                EC_METHOD_get_field_type
                0x00000000401b57ce                EC_GROUP_get0_generator
                0x00000000401b57d3                EC_GROUP_get_order
                0x00000000401b57fb                EC_GROUP_get_cofactor
                0x00000000401b5823                EC_GROUP_set_curve_name
                0x00000000401b5827                EC_GROUP_get_curve_name
                0x00000000401b582b                EC_GROUP_set_asn1_flag
                0x00000000401b582f                EC_GROUP_get_asn1_flag
                0x00000000401b5833                EC_GROUP_set_point_conversion_form
                0x00000000401b5837                EC_GROUP_get_point_conversion_form
                0x00000000401b583b                EC_GROUP_set_seed
                0x00000000401b58af                EC_GROUP_get0_seed
                0x00000000401b58b4                EC_GROUP_get_seed_len
                0x00000000401b58b9                EC_GROUP_set_curve_GFp
                0x00000000401b58f6                EC_GROUP_get_curve_GFp
                0x00000000401b5933                EC_GROUP_set_curve_GF2m
                0x00000000401b5971                EC_GROUP_get_curve_GF2m
                0x00000000401b59ae                EC_GROUP_get_degree
                0x00000000401b59eb                EC_GROUP_check_discriminant
                0x00000000401b5a28                EC_EX_DATA_set_data
                0x00000000401b5aea                EC_EX_DATA_get_data
                0x00000000401b5b1e                EC_EX_DATA_free_data
                0x00000000401b5b6e                EC_EX_DATA_clear_free_data
                0x00000000401b5bbe                EC_EX_DATA_free_all_data
                0x00000000401b5bfb                EC_EX_DATA_clear_free_all_data
                0x00000000401b5c38                EC_POINT_new
                0x00000000401b5d0c                EC_POINT_free
                0x00000000401b5d31                EC_GROUP_free
                0x00000000401b5d89                EC_POINT_clear_free
                0x00000000401b5dc4                EC_GROUP_clear_free
                0x00000000401b5e43                EC_POINT_copy
                0x00000000401b5eb2                EC_GROUP_copy
                0x00000000401b60cf                EC_GROUP_dup
                0x00000000401b6124                EC_GROUP_set_generator
                0x00000000401b61fb                EC_POINT_dup
                0x00000000401b6250                EC_POINT_method_of
                0x00000000401b6254                EC_POINT_set_to_infinity
                0x00000000401b62b9                EC_POINT_set_Jprojective_coordinates_GFp
                0x00000000401b6322                EC_POINT_get_Jprojective_coordinates_GFp
                0x00000000401b638b                EC_POINT_set_affine_coordinates_GFp
                0x00000000401b63f7                EC_POINT_set_affine_coordinates_GF2m
                0x00000000401b6463                EC_POINT_get_affine_coordinates_GFp
                0x00000000401b64cf                EC_POINT_get_affine_coordinates_GF2m
                0x00000000401b653b                EC_POINT_set_compressed_coordinates_GFp
                0x00000000401b65a7                EC_POINT_set_compressed_coordinates_GF2m
                0x00000000401b6613                EC_POINT_point2oct
                0x00000000401b667f                EC_POINT_oct2point
                0x00000000401b66eb                EC_POINT_add
                0x00000000401b6761                EC_POINT_dbl
                0x00000000401b67d1                EC_POINT_invert
                0x00000000401b683e                EC_POINT_is_at_infinity
                0x00000000401b68a6                EC_POINT_is_on_curve
                0x00000000401b6911                EC_POINT_cmp
                0x00000000401b6981                EC_GROUP_cmp
                0x00000000401b6be4                EC_POINT_make_affine
                0x00000000401b6c51                EC_POINTs_make_affine
                0x00000000401b6cde                EC_POINTs_mul
                0x00000000401b6d11                EC_POINT_mul
                0x00000000401b6d49                EC_GROUP_precompute_mult
                0x00000000401b6d79                EC_GROUP_have_precompute_mult
                0x00000000401b717d                ec_wNAF_mul
                0x00000000401b7fac                ec_wNAF_precompute_mult
                0x00000000401b85b6                ec_wNAF_have_precompute_mult
                0x00000000401b85e0                DES_ecb3_encrypt
                0x00000000401b86ab                DES_options
                0x00000000401b8704                DES_ecb_encrypt
                0x00000000401b87b7                ERR_load_ECDH_strings
                0x00000000401b87ef                ec_GFp_mont_group_init
                0x00000000401b8810                ec_GFp_mont_group_finish
                0x00000000401b8856                ec_GFp_mont_group_clear_finish
                0x00000000401b889c                ec_GFp_mont_group_copy
                0x00000000401b897e                ec_GFp_mont_field_mul
                0x00000000401b89ca                ec_GFp_mont_field_sqr
                0x00000000401b8a16                ec_GFp_mont_field_encode
                0x00000000401b8a66                ec_GFp_mont_group_set_curve
                0x00000000401b8bff                ec_GFp_mont_field_decode
                0x00000000401b8c45                ec_GFp_mont_field_set_to_one
                0x00000000401b8c92                EC_GFp_mont_method
                0x00000000401b8c98                ec_GFp_nist_group_copy
                0x00000000401b8cb4                ec_GFp_nist_group_set_curve
                0x00000000401b8e28                ec_GFp_nist_field_mul
                0x00000000401b8ef2                ec_GFp_nist_field_sqr
                0x00000000401b8fa3                EC_GFp_nist_method
                0x00000000401b8fb0                ec_GFp_simple_is_at_infinity
                0x00000000401b8fbb                ec_GFp_simple_group_init
                0x00000000401b8ff1                ec_GFp_simple_point_init
                0x00000000401b901e                ec_GFp_simple_group_finish
                0x00000000401b9045                ec_GFp_simple_point_finish
                0x00000000401b9066                ec_GFp_simple_group_clear_finish
                0x00000000401b908d                ec_GFp_simple_point_clear_finish
                0x00000000401b90b5                ec_GFp_simple_group_copy
                0x00000000401b912e                ec_GFp_simple_point_copy
                0x00000000401b9195                ec_GFp_simple_group_get_degree
                0x00000000401b91a7                ec_GFp_simple_group_set_curve
                0x00000000401b9398                ec_GFp_simple_group_get_curve
                0x00000000401b94ed                ec_GFp_simple_set_Jprojective_coordinates_GFp
                0x00000000401b96da                ec_GFp_simple_get_Jprojective_coordinates_GFp
                0x00000000401b983b                ec_GFp_simple_field_sqr
                0x00000000401b9856                ec_GFp_simple_field_mul
                0x00000000401b9874                ec_GFp_simple_group_check_discriminant
                0x00000000401b9aaa                ec_GFp_simple_point_set_to_infinity
                0x00000000401b9acd                ec_GFp_simple_point_set_affine_coordinates
                0x00000000401b9b39                ec_GFp_simple_cmp
                0x00000000401b9e2b                ec_GFp_simple_point_get_affine_coordinates
                0x00000000401ba195                ec_GFp_simple_invert
                0x00000000401ba1d0                ec_GFp_simple_set_compressed_coordinates
                0x00000000401ba678                ec_GFp_simple_make_affine
                0x00000000401ba78a                ec_GFp_simple_point2oct
                0x00000000401bab15                ec_GFp_simple_is_on_curve
                0x00000000401bae68                ec_GFp_simple_oct2point
                0x00000000401bb1e8                ec_GFp_simple_add
                0x00000000401bb904                ec_GFp_simple_dbl
                0x00000000401bbe23                ec_GFp_simple_points_make_affine
                0x00000000401bc39a                EC_GFp_simple_method
                0x00000000401bc3a0                ERR_load_ECDSA_strings
                0x00000000401bc3e0                ASN1_TYPE_set_octetstring
                0x00000000401bc43c                ASN1_TYPE_get_octetstring
                0x00000000401bc48b                ASN1_TYPE_set_int_octetstring
                0x00000000401bc5b5                ASN1_TYPE_get_int_octetstring
                0x00000000401bc780                EVP_CIPHER_CTX_init
                0x00000000401bc798                EVP_CIPHER_CTX_new
                0x00000000401bc7c2                EVP_EncryptUpdate
                0x00000000401bc938                EVP_EncryptFinal_ex
                0x00000000401bca01                EVP_EncryptFinal
                0x00000000401bca0f                EVP_DecryptUpdate
                0x00000000401bcb1a                EVP_CipherUpdate
                0x00000000401bcb3a                EVP_DecryptFinal_ex
                0x00000000401bccbd                EVP_CipherFinal_ex
                0x00000000401bccda                EVP_DecryptFinal
                0x00000000401bcce8                EVP_CipherFinal
                0x00000000401bcd0a                EVP_CIPHER_CTX_cleanup
                0x00000000401bcd61                EVP_CIPHER_CTX_free
                0x00000000401bcd79                EVP_CIPHER_CTX_set_padding
                0x00000000401bcd95                EVP_CIPHER_CTX_ctrl
                0x00000000401bce28                EVP_CipherInit_ex
                0x00000000401bd04e                EVP_CipherInit
                0x00000000401bd091                EVP_EncryptInit
                0x00000000401bd0a5                EVP_DecryptInit
                0x00000000401bd0b9                EVP_EncryptInit_ex
                0x00000000401bd0cd                EVP_DecryptInit_ex
                0x00000000401bd0e1                EVP_CIPHER_CTX_set_key_length
                0x00000000401bd150                EVP_CIPHER_CTX_rand_key
                0x00000000401bd189                EVP_CIPHER_CTX_copy
                0x00000000401bd270                EVP_CIPHER_param_to_asn1
                0x00000000401bd291                EVP_CIPHER_asn1_to_param
                0x00000000401bd2b1                EVP_CIPHER_get_asn1_iv
                0x00000000401bd32b                EVP_CIPHER_set_asn1_iv
                0x00000000401bd376                EVP_CIPHER_type
                0x00000000401bd4b9                EVP_CIPHER_block_size
                0x00000000401bd4bd                EVP_CIPHER_CTX_block_size
                0x00000000401bd4c4                EVP_Cipher
                0x00000000401bd4d5                EVP_CIPHER_CTX_cipher
                0x00000000401bd4d9                EVP_CIPHER_flags
                0x00000000401bd4de                EVP_CIPHER_CTX_flags
                0x00000000401bd4e6                EVP_CIPHER_CTX_get_app_data
                0x00000000401bd4eb                EVP_CIPHER_CTX_set_app_data
                0x00000000401bd4f0                EVP_CIPHER_iv_length
                0x00000000401bd4f4                EVP_CIPHER_CTX_iv_length
                0x00000000401bd4fb                EVP_CIPHER_key_length
                0x00000000401bd4ff                EVP_CIPHER_CTX_key_length
                0x00000000401bd503                EVP_CIPHER_nid
                0x00000000401bd506                EVP_CIPHER_CTX_nid
                0x00000000401bd50c                EVP_MD_block_size
                0x00000000401bd510                EVP_MD_type
                0x00000000401bd513                EVP_MD_pkey_type
                0x00000000401bd517                EVP_MD_size
                0x00000000401bd54d                EVP_MD_flags
                0x00000000401bd552                EVP_MD_CTX_md
                0x00000000401bd561                EVP_MD_CTX_set_flags
                0x00000000401bd569                EVP_MD_CTX_clear_flags
                0x00000000401bd573                EVP_MD_CTX_test_flags
                0x00000000401bd579                EVP_CIPHER_CTX_set_flags
                0x00000000401bd581                EVP_CIPHER_CTX_clear_flags
                0x00000000401bd58b                EVP_CIPHER_CTX_test_flags
                0x00000000401bd591                EVP_PKCS82PKEY
                0x00000000401bd6d2                EVP_PKEY2PKCS8_broken
                0x00000000401bd7c5                EVP_PKEY2PKCS8
                0x00000000401bd7d8                PKCS8_set_broken
                0x00000000401bd82e                EVP_PKEY_get_attr_count
                0x00000000401bd840                EVP_PKEY_get_attr_by_NID
                0x00000000401bd852                EVP_PKEY_get_attr_by_OBJ
                0x00000000401bd864                EVP_PKEY_get_attr
                0x00000000401bd876                EVP_PKEY_delete_attr
                0x00000000401bd888                EVP_PKEY_add1_attr
                0x00000000401bd8a3                EVP_PKEY_add1_attr_by_OBJ
                0x00000000401bd8be                EVP_PKEY_add1_attr_by_NID
                0x00000000401bd8d9                EVP_PKEY_add1_attr_by_txt
                0x00000000401bd900                i2d_PrivateKey
                0x00000000401bd975                idea_encrypt
                0x00000000401be25e                idea_cbc_encrypt
                0x00000000401be890                idea_cfb64_encrypt
                0x00000000401beab2                idea_options
                0x00000000401beab8                idea_ecb_encrypt
                0x00000000401beb6d                idea_ofb64_encrypt
                0x00000000401beda8                idea_set_encrypt_key
                0x00000000401bef2e                idea_set_decrypt_key
                0x00000000401bf013                EVP_dss
                0x00000000401bf055                EVP_dss1
                0x00000000401bf097                EVP_ecdsa
                0x00000000401bf0d9                EVP_md4
                0x00000000401bf11b                EVP_md5
                0x00000000401bf15d                EVP_ripemd160
                0x00000000401bf19f                EVP_sha
                0x00000000401bf27d                EVP_sha1
                0x00000000401bf283                EVP_sha224
                0x00000000401bf289                EVP_sha256
                0x00000000401bf28f                EVP_sha384
                0x00000000401bf295                EVP_sha512
                0x00000000401bf29b                MD4_Init
                0x00000000401bf2d0                md4_block_data_order
                0x00000000401bf880                MD4_Update
                0x00000000401bf98c                MD4_Transform
                0x00000000401bf998                MD4_Final
                0x00000000401bfa4d                MD5_Init
                0x00000000401bfa82                md5_block_data_order
                0x00000000401c0281                MD5_Update
                0x00000000401c038d                MD5_Transform
                0x00000000401c0399                MD5_Final
                0x00000000401c0d4d                RAND_SSLeay
                0x00000000401c0dc7                EVP_add_cipher
                0x00000000401c0e0f                EVP_add_digest
                0x00000000401c0eb8                EVP_get_cipherbyname
                0x00000000401c0ecb                EVP_get_digestbyname
                0x00000000401c0ede                EVP_cleanup
                0x00000000401c0f27                EVP_CIPHER_do_all
                0x00000000401c0f4b                EVP_CIPHER_do_all_sorted
                0x00000000401c0f6f                EVP_MD_do_all
                0x00000000401c0f93                EVP_MD_do_all_sorted
                0x00000000401c10b6                OBJ_NAME_init
                0x00000000401c1107                OBJ_NAME_new_index
                0x00000000401c1266                OBJ_NAME_get
                0x00000000401c1306                OBJ_NAME_add
                0x00000000401c13dd                OBJ_NAME_remove
                0x00000000401c148c                OBJ_NAME_do_all
                0x00000000401c14b9                OBJ_NAME_do_all_sorted
                0x00000000401c155b                OBJ_NAME_cleanup
                0x00000000401c15d6                OPENSSL_gmtime
                0x00000000401c15dc                OPENSSL_gmtime_adj
                0x00000000401c1aab                check_defer
                0x00000000401c1ac8                OBJ_cleanup
                0x00000000401c1b3d                OBJ_new_nid
                0x00000000401c1b4c                OBJ_add_object
                0x00000000401c1d0b                OBJ_nid2obj
                0x00000000401c1dcd                OBJ_nid2sn
                0x00000000401c1e92                OBJ_nid2ln
                0x00000000401c1f58                OBJ_bsearch_ex_
                0x00000000401c2072                OBJ_bsearch_
                0x00000000401c2086                OBJ_obj2nid
                0x00000000401c2110                OBJ_obj2txt
                0x00000000401c2497                OBJ_ln2nid
                0x00000000401c2515                OBJ_sn2nid
                0x00000000401c2593                OBJ_txt2obj
                0x00000000401c2683                OBJ_txt2nid
                0x00000000401c26b1                OBJ_create
                0x00000000401c2796                OBJ_create_objects
                0x00000000401c28d0                OBJ_dup
                0x00000000401c2aa1                OBJ_cmp
                0x00000000401c2ac6                DES_ede3_ofb64_encrypt
                0x00000000401c2cb6                DES_ofb64_encrypt
                0x00000000401c2e85                PKCS5_PBKDF2_HMAC
                0x00000000401c3153                PKCS5_PBKDF2_HMAC_SHA1
                0x00000000401c31aa                PKCS5_v2_PBE_keyivgen
                0x00000000401c35ae                d2i_PBE2PARAM
                0x00000000401c35c1                i2d_PBE2PARAM
                0x00000000401c35d4                PBE2PARAM_new
                0x00000000401c35e7                PBE2PARAM_free
                0x00000000401c35fa                d2i_PBKDF2PARAM
                0x00000000401c360d                i2d_PBKDF2PARAM
                0x00000000401c3620                PBKDF2PARAM_new
                0x00000000401c3633                PBKDF2PARAM_free
                0x00000000401c3646                PKCS5_pbe2_set_iv
                0x00000000401c3b1f                PKCS5_pbe2_set
                0x00000000401c3b75                d2i_PKCS8_PRIV_KEY_INFO
                0x00000000401c3b88                i2d_PKCS8_PRIV_KEY_INFO
                0x00000000401c3b9b                PKCS8_PRIV_KEY_INFO_new
                0x00000000401c3bae                PKCS8_PRIV_KEY_INFO_free
                0x00000000401c3bc1                PKCS8_pkey_set0
                0x00000000401c3c66                PKCS8_pkey_get0
                0x00000000401c3e17                EVP_PKEY_bits
                0x00000000401c3e4d                EVP_PKEY_size
                0x00000000401c3e83                EVP_PKEY_save_parameters
                0x00000000401c3eb0                EVP_PKEY_missing_parameters
                0x00000000401c3edb                EVP_PKEY_copy_parameters
                0x00000000401c3f69                EVP_PKEY_cmp_parameters
                0x00000000401c3fa3                EVP_PKEY_cmp
                0x00000000401c3fff                EVP_PKEY_new
                0x00000000401c4082                EVP_PKEY_set_type
                0x00000000401c409a                EVP_PKEY_set_type_str
                0x00000000401c40b2                EVP_PKEY_assign
                0x00000000401c40db                EVP_PKEY_get0
                0x00000000401c40e0                EVP_PKEY_set1_RSA
                0x00000000401c410d                EVP_PKEY_get1_RSA
                0x00000000401c414b                EVP_PKEY_set1_DSA
                0x00000000401c4178                EVP_PKEY_get1_DSA
                0x00000000401c41b6                EVP_PKEY_set1_EC_KEY
                0x00000000401c41e3                EVP_PKEY_get1_EC_KEY
                0x00000000401c4224                EVP_PKEY_set1_DH
                0x00000000401c4251                EVP_PKEY_get1_DH
                0x00000000401c428f                EVP_PKEY_type
                0x00000000401c42b2                EVP_PKEY_id
                0x00000000401c42b5                EVP_PKEY_base_id
                0x00000000401c42c5                EVP_PKEY_free
                0x00000000401c4315                EVP_PKEY_print_public
                0x00000000401c4341                EVP_PKEY_print_private
                0x00000000401c436a                EVP_PKEY_print_params
                0x00000000401c439a                EVP_PKEY_get_default_digest_nid
                0x00000000401c43d6                EVP_SignFinal
                0x00000000401c4585                EVP_VerifyFinal
                0x00000000401c472c                policy_cache_free
                0x00000000401c475f                policy_cache_set
                0x00000000401c4ae3                policy_cache_find_data
                0x00000000401c4b19                policy_data_free
                0x00000000401c4b51                policy_data_new
                0x00000000401c4c4b                policy_cache_set_mapping
                0x00000000401c4e61                d2i_PKCS7
                0x00000000401c4e74                i2d_PKCS7
                0x00000000401c4e87                PKCS7_new
                0x00000000401c4e9a                PKCS7_free
                0x00000000401c4ead                i2d_PKCS7_NDEF
                0x00000000401c4ec0                PKCS7_dup
                0x00000000401c4ed6                d2i_PKCS7_SIGNED
                0x00000000401c4ee9                i2d_PKCS7_SIGNED
                0x00000000401c4efc                PKCS7_SIGNED_new
                0x00000000401c4f0f                PKCS7_SIGNED_free
                0x00000000401c4f22                d2i_PKCS7_SIGNER_INFO
                0x00000000401c4f35                i2d_PKCS7_SIGNER_INFO
                0x00000000401c4f48                PKCS7_SIGNER_INFO_new
                0x00000000401c4f5b                PKCS7_SIGNER_INFO_free
                0x00000000401c4f6e                d2i_PKCS7_ISSUER_AND_SERIAL
                0x00000000401c4f81                i2d_PKCS7_ISSUER_AND_SERIAL
                0x00000000401c4f94                PKCS7_ISSUER_AND_SERIAL_new
                0x00000000401c4fa7                PKCS7_ISSUER_AND_SERIAL_free
                0x00000000401c4fba                d2i_PKCS7_ENVELOPE
                0x00000000401c4fcd                i2d_PKCS7_ENVELOPE
                0x00000000401c4fe0                PKCS7_ENVELOPE_new
                0x00000000401c4ff3                PKCS7_ENVELOPE_free
                0x00000000401c5006                d2i_PKCS7_RECIP_INFO
                0x00000000401c5019                i2d_PKCS7_RECIP_INFO
                0x00000000401c502c                PKCS7_RECIP_INFO_new
                0x00000000401c503f                PKCS7_RECIP_INFO_free
                0x00000000401c5052                d2i_PKCS7_ENC_CONTENT
                0x00000000401c5065                i2d_PKCS7_ENC_CONTENT
                0x00000000401c5078                PKCS7_ENC_CONTENT_new
                0x00000000401c508b                PKCS7_ENC_CONTENT_free
                0x00000000401c509e                d2i_PKCS7_SIGN_ENVELOPE
                0x00000000401c50b1                i2d_PKCS7_SIGN_ENVELOPE
                0x00000000401c50c4                PKCS7_SIGN_ENVELOPE_new
                0x00000000401c50d7                PKCS7_SIGN_ENVELOPE_free
                0x00000000401c50ea                d2i_PKCS7_ENCRYPT
                0x00000000401c50fd                i2d_PKCS7_ENCRYPT
                0x00000000401c5110                PKCS7_ENCRYPT_new
                0x00000000401c5123                PKCS7_ENCRYPT_free
                0x00000000401c5136                d2i_PKCS7_DIGEST
                0x00000000401c5149                i2d_PKCS7_DIGEST
                0x00000000401c515c                PKCS7_DIGEST_new
                0x00000000401c516f                PKCS7_DIGEST_free
                0x00000000401c5182                PKCS7_print_ctx
                0x00000000401c56ea                PKCS7_dataInit
                0x00000000401c5d58                PKCS7_dataDecode
                0x00000000401c656c                PKCS7_SIGNER_INFO_sign
                0x00000000401c6743                PKCS7_get_issuer_and_serial
                0x00000000401c67b7                PKCS7_get_signed_attribute
                0x00000000401c67c9                PKCS7_dataFinal
                0x00000000401c6ceb                PKCS7_get_attribute
                0x00000000401c6cfd                PKCS7_digest_from_attributes
                0x00000000401c6d20                PKCS7_signatureVerify
                0x00000000401c7024                PKCS7_dataVerify
                0x00000000401c7193                PKCS7_set_signed_attributes
                0x00000000401c7216                PKCS7_set_attributes
                0x00000000401c7299                PKCS7_add_signed_attribute
                0x00000000401c72ab                PKCS7_add_attribute
                0x00000000401c72c0                PKCS7_ctrl
                0x00000000401c73e5                PKCS7_set_content
                0x00000000401c7473                PKCS7_set_type
                0x00000000401c7661                PKCS7_content_new
                0x00000000401c76b2                PKCS7_set0_type_other
                0x00000000401c76d9                PKCS7_add_signer
                0x00000000401c7838                PKCS7_add_certificate
                0x00000000401c7913                PKCS7_add_crl
                0x00000000401c79ee                PKCS7_SIGNER_INFO_set
                0x00000000401c7b3c                PKCS7_add_signature
                0x00000000401c7bff                PKCS7_set_digest
                0x00000000401c7cb0                PKCS7_get_signer_info
                0x00000000401c7cec                PKCS7_SIGNER_INFO_get0_algs
                0x00000000401c7d12                PKCS7_RECIP_INFO_get0_alg
                0x00000000401c7d20                PKCS7_add_recipient_info
                0x00000000401c7d90                PKCS7_RECIP_INFO_set
                0x00000000401c7f1a                PKCS7_add_recipient
                0x00000000401c7f6b                PKCS7_cert_from_signer_info
                0x00000000401c7faf                PKCS7_set_cipher
                0x00000000401c804a                PKCS7_stream
                0x00000000401c8112                RC2_encrypt
                0x00000000401c8253                RC2_decrypt
                0x00000000401c83a8                RC2_cbc_encrypt
                0x00000000401c89c5                RC2_ecb_encrypt
                0x00000000401c8a87                RC2_set_key
                0x00000000401c8bb0                RC2_cfb64_encrypt
                0x00000000401c8dc6                RC2_ofb64_encrypt
                0x00000000401c8f90                RC4
                0x00000000401c93d3                RC4_options
                0x00000000401c93d9                RC4_set_key
                0x00000000401c94d7                RIPEMD160_Init
                0x00000000401c9513                ripemd160_block_data_order
                0x00000000401cab5f                RIPEMD160_Update
                0x00000000401cac6b                RIPEMD160_Transform
                0x00000000401cac77                RIPEMD160_Final
                0x00000000401cad6f                d2i_RSAPrivateKey
                0x00000000401cad82                i2d_RSAPrivateKey
                0x00000000401cad95                d2i_RSAPublicKey
                0x00000000401cada8                i2d_RSAPublicKey
                0x00000000401cadbb                RSAPublicKey_dup
                0x00000000401cadd1                RSAPrivateKey_dup
                0x00000000401cc5f9                RSA_PKCS1_SSLeay
                0x00000000401cc5ff                RSA_padding_add_none
                0x00000000401cc66e                RSA_padding_check_none
                0x00000000401cc6dd                PKCS1_MGF1
                0x00000000401cc87b                RSA_padding_check_PKCS1_OAEP
                0x00000000401ccb22                RSA_padding_add_PKCS1_OAEP
                0x00000000401ccd30                RSA_padding_add_PKCS1_type_1
                0x00000000401ccdb6                RSA_padding_check_PKCS1_type_1
                0x00000000401ccf08                RSA_padding_add_PKCS1_type_2
                0x00000000401ccfc6                RSA_padding_check_PKCS1_type_2
                0x00000000401cd0f0                RSA_sign
                0x00000000401cd337                int_rsa_verify
                0x00000000401cd6c0                RSA_verify
                0x00000000401cd700                RSA_padding_add_SSLv23
                0x00000000401cd7cf                RSA_padding_check_SSLv23
                0x00000000401cd92f                RSA_padding_add_X931
                0x00000000401cd9cf                RSA_padding_check_X931
                0x00000000401cdae5                RSA_X931_hash_id
                0x00000000401cdb30                DES_set_odd_parity
                0x00000000401cdb4f                DES_check_key_parity
                0x00000000401cdb90                DES_is_weak_key
                0x00000000401cdbd3                DES_set_key_unchecked
                0x00000000401cde6f                DES_set_key_checked
                0x00000000401cdeae                DES_set_key
                0x00000000401cded1                DES_key_sched
                0x00000000401cef74                SHA_Update
                0x00000000401cf080                SHA_Transform
                0x00000000401cf08c                SHA_Final
                0x00000000401cf155                SHA_Init
                0x00000000401cf1a0                X509_ocspid_print
                0x00000000401cf311                X509_signature_print
                0x00000000401cf411                ASN1_STRING_print
                0x00000000401cf4c4                ASN1_GENERALIZEDTIME_print
                0x00000000401cf736                ASN1_UTCTIME_print
                0x00000000401cf8a3                ASN1_TIME_print
                0x00000000401cf8e0                X509_print_ex
                0x00000000401cfe17                X509_print
                0x00000000401cfe2f                X509_NAME_print
                0x00000000401cff28                X509_CERT_AUX_print
                0x00000000401d064b                ASN1_tag2bit
                0x00000000401d0662                asn1_ex_c2i
                0x00000000401d0eb8                ASN1_item_ex_d2i
                0x00000000401d18c7                ASN1_item_d2i
                0x00000000401d1e72                ASN1_template_d2i
                0x00000000401d1ec4                asn1_ex_i2c
                0x00000000401d21be                ASN1_item_ex_i2d
                0x00000000401d2611                ASN1_item_ndef_i2d
                0x00000000401d2624                ASN1_item_i2d
                0x00000000401d2b02                ASN1_template_i2d
                0x00000000401d2b20                ASN1_primitive_free
                0x00000000401d2e2c                ASN1_item_free
                0x00000000401d2e49                ASN1_item_ex_free
                0x00000000401d2e5c                ASN1_template_free
                0x00000000401d2fa3                ASN1_primitive_new
                0x00000000401d33bf                ASN1_item_ex_new
                0x00000000401d33d2                ASN1_item_new
                0x00000000401d3401                ASN1_template_new
                0x00000000401d3498                d2i_ASN1_INTEGER
                0x00000000401d34ab                i2d_ASN1_INTEGER
                0x00000000401d34be                ASN1_INTEGER_new
                0x00000000401d34d1                ASN1_INTEGER_free
                0x00000000401d34e4                d2i_ASN1_ENUMERATED
                0x00000000401d34f7                i2d_ASN1_ENUMERATED
                0x00000000401d350a                ASN1_ENUMERATED_new
                0x00000000401d351d                ASN1_ENUMERATED_free
                0x00000000401d3530                d2i_ASN1_BIT_STRING
                0x00000000401d3543                i2d_ASN1_BIT_STRING
                0x00000000401d3556                ASN1_BIT_STRING_new
                0x00000000401d3569                ASN1_BIT_STRING_free
                0x00000000401d357c                d2i_ASN1_OCTET_STRING
                0x00000000401d358f                i2d_ASN1_OCTET_STRING
                0x00000000401d35a2                ASN1_OCTET_STRING_new
                0x00000000401d35b5                ASN1_OCTET_STRING_free
                0x00000000401d35c8                d2i_ASN1_NULL
                0x00000000401d35db                i2d_ASN1_NULL
                0x00000000401d35ee                ASN1_NULL_new
                0x00000000401d3601                ASN1_NULL_free
                0x00000000401d3614                d2i_ASN1_UTF8STRING
                0x00000000401d3627                i2d_ASN1_UTF8STRING
                0x00000000401d363a                ASN1_UTF8STRING_new
                0x00000000401d364d                ASN1_UTF8STRING_free
                0x00000000401d3660                d2i_ASN1_PRINTABLESTRING
                0x00000000401d3673                i2d_ASN1_PRINTABLESTRING
                0x00000000401d3686                ASN1_PRINTABLESTRING_new
                0x00000000401d3699                ASN1_PRINTABLESTRING_free
                0x00000000401d36ac                d2i_ASN1_T61STRING
                0x00000000401d36bf                i2d_ASN1_T61STRING
                0x00000000401d36d2                ASN1_T61STRING_new
                0x00000000401d36e5                ASN1_T61STRING_free
                0x00000000401d36f8                d2i_ASN1_IA5STRING
                0x00000000401d370b                i2d_ASN1_IA5STRING
                0x00000000401d371e                ASN1_IA5STRING_new
                0x00000000401d3731                ASN1_IA5STRING_free
                0x00000000401d3744                d2i_ASN1_GENERALSTRING
                0x00000000401d3757                i2d_ASN1_GENERALSTRING
                0x00000000401d376a                ASN1_GENERALSTRING_new
                0x00000000401d377d                ASN1_GENERALSTRING_free
                0x00000000401d3790                d2i_ASN1_UTCTIME
                0x00000000401d37a3                i2d_ASN1_UTCTIME
                0x00000000401d37b6                ASN1_UTCTIME_new
                0x00000000401d37c9                ASN1_UTCTIME_free
                0x00000000401d37dc                d2i_ASN1_GENERALIZEDTIME
                0x00000000401d37ef                i2d_ASN1_GENERALIZEDTIME
                0x00000000401d3802                ASN1_GENERALIZEDTIME_new
                0x00000000401d3815                ASN1_GENERALIZEDTIME_free
                0x00000000401d3828                d2i_ASN1_VISIBLESTRING
                0x00000000401d383b                i2d_ASN1_VISIBLESTRING
                0x00000000401d384e                ASN1_VISIBLESTRING_new
                0x00000000401d3861                ASN1_VISIBLESTRING_free
                0x00000000401d3874                d2i_ASN1_UNIVERSALSTRING
                0x00000000401d3887                i2d_ASN1_UNIVERSALSTRING
                0x00000000401d389a                ASN1_UNIVERSALSTRING_new
                0x00000000401d38ad                ASN1_UNIVERSALSTRING_free
                0x00000000401d38c0                d2i_ASN1_BMPSTRING
                0x00000000401d38d3                i2d_ASN1_BMPSTRING
                0x00000000401d38e6                ASN1_BMPSTRING_new
                0x00000000401d38f9                ASN1_BMPSTRING_free
                0x00000000401d390c                d2i_ASN1_TYPE
                0x00000000401d391f                i2d_ASN1_TYPE
                0x00000000401d3932                ASN1_TYPE_new
                0x00000000401d3945                ASN1_TYPE_free
                0x00000000401d3958                d2i_ASN1_PRINTABLE
                0x00000000401d396b                i2d_ASN1_PRINTABLE
                0x00000000401d397e                ASN1_PRINTABLE_new
                0x00000000401d3991                ASN1_PRINTABLE_free
                0x00000000401d39a4                d2i_DISPLAYTEXT
                0x00000000401d39b7                i2d_DISPLAYTEXT
                0x00000000401d39ca                DISPLAYTEXT_new
                0x00000000401d39dd                DISPLAYTEXT_free
                0x00000000401d39f0                d2i_DIRECTORYSTRING
                0x00000000401d3a03                i2d_DIRECTORYSTRING
                0x00000000401d3a16                DIRECTORYSTRING_new
                0x00000000401d3a29                DIRECTORYSTRING_free
                0x00000000401d3a3c                d2i_ASN1_SEQUENCE_ANY
                0x00000000401d3a4f                i2d_ASN1_SEQUENCE_ANY
                0x00000000401d3a62                d2i_ASN1_SET_ANY
                0x00000000401d3a75                i2d_ASN1_SET_ANY
                0x00000000401d3acc                asn1_get_choice_selector
                0x00000000401d3ad7                asn1_set_choice_selector
                0x00000000401d3ae6                asn1_do_lock
                0x00000000401d3b48                asn1_enc_init
                0x00000000401d3b6a                asn1_enc_free
                0x00000000401d3b9d                asn1_enc_save
                0x00000000401d3c0d                asn1_enc_restore
                0x00000000401d3c76                asn1_get_field_ptr
                0x00000000401d3c8b                asn1_do_adb
                0x00000000401d3d47                d2i_AUTHORITY_KEYID
                0x00000000401d3d5a                i2d_AUTHORITY_KEYID
                0x00000000401d3d6d                AUTHORITY_KEYID_new
                0x00000000401d3d80                AUTHORITY_KEYID_free
                0x00000000401d401e                POLICYINFO_free
                0x00000000401d4031                d2i_CERTIFICATEPOLICIES
                0x00000000401d4044                i2d_CERTIFICATEPOLICIES
                0x00000000401d4057                CERTIFICATEPOLICIES_new
                0x00000000401d406a                CERTIFICATEPOLICIES_free
                0x00000000401d407d                d2i_POLICYINFO
                0x00000000401d4090                i2d_POLICYINFO
                0x00000000401d40a3                POLICYINFO_new
                0x00000000401d40b6                d2i_POLICYQUALINFO
                0x00000000401d40c9                i2d_POLICYQUALINFO
                0x00000000401d40dc                POLICYQUALINFO_new
                0x00000000401d40ef                POLICYQUALINFO_free
                0x00000000401d4102                d2i_USERNOTICE
                0x00000000401d4115                i2d_USERNOTICE
                0x00000000401d4128                USERNOTICE_new
                0x00000000401d413b                USERNOTICE_free
                0x00000000401d414e                d2i_NOTICEREF
                0x00000000401d4161                i2d_NOTICEREF
                0x00000000401d4174                NOTICEREF_new
                0x00000000401d4ad9                NOTICEREF_free
                0x00000000401d4aec                X509_POLICY_NODE_print
                0x00000000401d50b0                DIST_POINT_free
                0x00000000401d50c3                d2i_DIST_POINT_NAME
                0x00000000401d50d6                i2d_DIST_POINT_NAME
                0x00000000401d50e9                DIST_POINT_NAME_new
                0x00000000401d52e7                DIST_POINT_NAME_free
                0x00000000401d52fa                d2i_DIST_POINT
                0x00000000401d530d                i2d_DIST_POINT
                0x00000000401d5320                DIST_POINT_new
                0x00000000401d55cb                d2i_CRL_DIST_POINTS
                0x00000000401d55de                i2d_CRL_DIST_POINTS
                0x00000000401d55f1                CRL_DIST_POINTS_new
                0x00000000401d5604                CRL_DIST_POINTS_free
                0x00000000401d5617                d2i_ISSUING_DIST_POINT
                0x00000000401d562a                i2d_ISSUING_DIST_POINT
                0x00000000401d563d                ISSUING_DIST_POINT_new
                0x00000000401d5650                ISSUING_DIST_POINT_free
                0x00000000401d585d                DIST_POINT_set_dpname
                0x00000000401d5950                d2i_GENERAL_NAME
                0x00000000401d5963                i2d_GENERAL_NAME
                0x00000000401d5976                d2i_OTHERNAME
                0x00000000401d5989                i2d_OTHERNAME
                0x00000000401d599c                OTHERNAME_new
                0x00000000401d59af                OTHERNAME_free
                0x00000000401d59c2                d2i_EDIPARTYNAME
                0x00000000401d59d5                i2d_EDIPARTYNAME
                0x00000000401d59e8                EDIPARTYNAME_new
                0x00000000401d59fb                EDIPARTYNAME_free
                0x00000000401d5a0e                GENERAL_NAME_new
                0x00000000401d5a21                GENERAL_NAME_free
                0x00000000401d5a34                d2i_GENERAL_NAMES
                0x00000000401d5a47                i2d_GENERAL_NAMES
                0x00000000401d5a5a                GENERAL_NAMES_new
                0x00000000401d5a6d                GENERAL_NAMES_free
                0x00000000401d5a80                GENERAL_NAME_dup
                0x00000000401d5a9b                OTHERNAME_cmp
                0x00000000401d5add                GENERAL_NAME_cmp
                0x00000000401d5b6a                GENERAL_NAME_set0_value
                0x00000000401d5b9d                GENERAL_NAME_get0_value
                0x00000000401d5bd8                GENERAL_NAME_set0_othername
                0x00000000401d5c0f                GENERAL_NAME_get0_otherName
                0x00000000401d620b                GENERAL_SUBTREE_new
                0x00000000401d621e                GENERAL_SUBTREE_free
                0x00000000401d6231                NAME_CONSTRAINTS_new
                0x00000000401d6244                NAME_CONSTRAINTS_free
                0x00000000401d6403                NAME_CONSTRAINTS_check
                0x00000000401d6526                POLICY_CONSTRAINTS_new
                0x00000000401d6539                POLICY_CONSTRAINTS_free
                0x00000000401d672a                POLICY_MAPPING_free
                0x00000000401d673d                POLICY_MAPPING_new
                0x00000000401d69d5                X509V3_EXT_val_prn
                0x00000000401d6aed                X509V3_EXT_print
                0x00000000401d6cad                X509V3_extensions_print
                0x00000000401d714d                X509_PURPOSE_get_count
                0x00000000401d7170                X509_PURPOSE_get0
                0x00000000401d71ab                X509_PURPOSE_get_by_sname
                0x00000000401d71ee                X509_PURPOSE_get_by_id
                0x00000000401d722d                X509_PURPOSE_set
                0x00000000401d7279                X509_PURPOSE_add
                0x00000000401d7430                X509_PURPOSE_cleanup
                0x00000000401d7474                X509_PURPOSE_get_id
                0x00000000401d7477                X509_PURPOSE_get0_name
                0x00000000401d747c                X509_PURPOSE_get0_sname
                0x00000000401d7481                X509_PURPOSE_get_trust
                0x00000000401d7485                X509_supported_extension
                0x00000000401d79f6                X509_check_purpose
                0x00000000401d7a77                X509_check_ca
                0x00000000401d7ac5                X509_check_akid
                0x00000000401d7b9a                X509_check_issued
                0x00000000401d7cfe                X509V3_conf_free
                0x00000000401d7de4                X509V3_add_value
                0x00000000401d7f0b                X509V3_add_value_uchar
                0x00000000401d7f19                X509V3_add_value_bool
                0x00000000401d7f3c                X509V3_add_value_bool_nf
                0x00000000401d7f59                i2s_ASN1_ENUMERATED
                0x00000000401d7fc9                i2s_ASN1_INTEGER
                0x00000000401d8039                s2i_ASN1_INTEGER
                0x00000000401d819e                X509V3_add_value_int
                0x00000000401d81e9                X509V3_get_value_bool
                0x00000000401d834d                X509V3_get_value_int
                0x00000000401d83b1                X509V3_parse_list
                0x00000000401d85e5                hex_to_string
                0x00000000401d86a1                string_to_hex
                0x00000000401d8850                name_cmp
                0x00000000401d8899                X509_email_free
                0x00000000401d89ff                X509_get1_email
                0x00000000401d8a4c                X509_REQ_get1_email
                0x00000000401d8aaa                X509_get1_ocsp
                0x00000000401d8b41                a2i_ipadd
                0x00000000401d8c8b                a2i_IPADDRESS
                0x00000000401d8ce6                a2i_IPADDRESS_NC
                0x00000000401d8dc2                X509V3_NAME_from_section
                0x00000000401d8eb0                X509at_get_attr_count
                0x00000000401d8ebe                X509at_get_attr_by_OBJ
                0x00000000401d8f32                X509at_get_attr_by_NID
                0x00000000401d8f64                X509at_get_attr
                0x00000000401d8fa8                X509at_delete_attr
                0x00000000401d8feb                X509at_add1_attr
                0x00000000401d90cc                X509_ATTRIBUTE_set1_object
                0x00000000401d9108                X509_ATTRIBUTE_set1_data
                0x00000000401d927d                X509_ATTRIBUTE_create_by_OBJ
                0x00000000401d9346                X509at_add1_attr_by_OBJ
                0x00000000401d9388                X509_ATTRIBUTE_create_by_NID
                0x00000000401d9401                X509at_add1_attr_by_NID
                0x00000000401d9443                X509_ATTRIBUTE_create_by_txt
                0x00000000401d94e3                X509at_add1_attr_by_txt
                0x00000000401d9525                X509_ATTRIBUTE_count
                0x00000000401d954b                X509_ATTRIBUTE_get0_object
                0x00000000401d955a                X509_ATTRIBUTE_get0_type
                0x00000000401d959f                X509_ATTRIBUTE_get0_data
                0x00000000401d95f8                X509at_get0_data_by_OBJ
                0x00000000401d9684                X509_CRL_get_ext_count
                0x00000000401d9699                X509_CRL_get_ext_by_NID
                0x00000000401d96ae                X509_CRL_get_ext_by_OBJ
                0x00000000401d96c3                X509_CRL_get_ext_by_critical
                0x00000000401d96d8                X509_CRL_get_ext
                0x00000000401d96ed                X509_CRL_delete_ext
                0x00000000401d9702                X509_CRL_get_ext_d2i
                0x00000000401d9717                X509_CRL_add1_ext_i2d
                0x00000000401d972c                X509_CRL_add_ext
                0x00000000401d974a                X509_get_ext_count
                0x00000000401d975f                X509_get_ext_by_NID
                0x00000000401d9774                X509_get_ext_by_OBJ
                0x00000000401d9789                X509_get_ext_by_critical
                0x00000000401d979e                X509_get_ext
                0x00000000401d97b3                X509_delete_ext
                0x00000000401d97c8                X509_add_ext
                0x00000000401d97e6                X509_get_ext_d2i
                0x00000000401d97fb                X509_add1_ext_i2d
                0x00000000401d9810                X509_REVOKED_get_ext_count
                0x00000000401d9822                X509_REVOKED_get_ext_by_NID
                0x00000000401d9834                X509_REVOKED_get_ext_by_OBJ
                0x00000000401d9846                X509_REVOKED_get_ext_by_critical
                0x00000000401d9858                X509_REVOKED_get_ext
                0x00000000401d986a                X509_REVOKED_delete_ext
                0x00000000401d987c                X509_REVOKED_add_ext
                0x00000000401d9897                X509_REVOKED_get_ext_d2i
                0x00000000401d98a9                X509_REVOKED_add1_ext_i2d
                0x00000000401d98c0                X509_to_X509_REQ
                0x00000000401d99b9                X509_REQ_get_pubkey
                0x00000000401d99e6                X509_REQ_check_private_key
                0x00000000401d9b0f                X509_REQ_extension_nid
                0x00000000401d9b50                X509_REQ_get_extension_nids
                0x00000000401d9b58                X509_REQ_set_extension_nids
                0x00000000401d9b60                X509_REQ_add_extensions_nid
                0x00000000401d9c5a                X509_REQ_add_extensions
                0x00000000401d9c6d                X509_REQ_get_attr_count
                0x00000000401d9c82                X509_REQ_get_attr_by_NID
                0x00000000401d9c97                X509_REQ_get_attr_by_OBJ
                0x00000000401d9cac                X509_REQ_get_attr
                0x00000000401d9cc1                X509_REQ_get_extensions
                0x00000000401d9db6                X509_REQ_delete_attr
                0x00000000401d9dcb                X509_REQ_add1_attr
                0x00000000401d9de9                X509_REQ_add1_attr_by_OBJ
                0x00000000401d9e07                X509_REQ_add1_attr_by_NID
                0x00000000401d9e25                X509_REQ_add1_attr_by_txt
                0x00000000401d9e50                X509v3_get_ext_count
                0x00000000401d9e69                X509v3_get_ext_by_OBJ
                0x00000000401d9edd                X509v3_get_ext_by_NID
                0x00000000401d9f0f                X509v3_get_ext_by_critical
                0x00000000401d9f8a                X509v3_get_ext
                0x00000000401d9fcd                X509v3_delete_ext
                0x00000000401da010                X509v3_add_ext
                0x00000000401da118                X509_EXTENSION_set_object
                0x00000000401da154                X509_EXTENSION_set_critical
                0x00000000401da16f                X509_EXTENSION_set_data
                0x00000000401da19d                X509_EXTENSION_create_by_OBJ
                0x00000000401da260                X509_EXTENSION_create_by_NID
                0x00000000401da2d7                X509_EXTENSION_get_object
                0x00000000401da2e6                X509_EXTENSION_get_data
                0x00000000401da2f6                X509_EXTENSION_get_critical
                0x00000000401da6aa                X509_time_adj_ex
                0x00000000401da6fe                X509_time_adj
                0x00000000401da717                X509_cmp_time
                0x00000000401dabca                X509_cmp_current_time
                0x00000000401db790                X509_gmtime_adj
                0x00000000401db7a3                X509_get_pubkey_parameters
                0x00000000401db8c3                X509_verify_cert
                0x00000000401dc24b                X509_STORE_CTX_get_ex_new_index
                0x00000000401dc26d                X509_STORE_CTX_set_ex_data
                0x00000000401dc282                X509_STORE_CTX_get_ex_data
                0x00000000401dc297                X509_STORE_CTX_get_error
                0x00000000401dc29e                X509_STORE_CTX_set_error
                0x00000000401dc2a5                X509_STORE_CTX_get_error_depth
                0x00000000401dc2ac                X509_STORE_CTX_get_current_cert
                0x00000000401dc2b4                X509_STORE_CTX_get_chain
                0x00000000401dc2bc                X509_STORE_CTX_get1_chain
                0x00000000401dc32e                X509_STORE_CTX_get0_current_issuer
                0x00000000401dc336                X509_STORE_CTX_get0_current_crl
                0x00000000401dc33e                X509_STORE_CTX_get0_parent_ctx
                0x00000000401dc346                X509_STORE_CTX_set_cert
                0x00000000401dc34b                X509_STORE_CTX_set_chain
                0x00000000401dc350                X509_STORE_CTX_set0_crls
                0x00000000401dc355                X509_STORE_CTX_purpose_inherit
                0x00000000401dc466                X509_STORE_CTX_set_purpose
                0x00000000401dc480                X509_STORE_CTX_set_trust
                0x00000000401dc49a                X509_STORE_CTX_new
                0x00000000401dc4f4                X509_STORE_CTX_init
                0x00000000401dc845                X509_STORE_CTX_trusted_stack
                0x00000000401dc852                X509_STORE_CTX_cleanup
                0x00000000401dc8f6                X509_STORE_CTX_free
                0x00000000401dc909                X509_STORE_CTX_set_depth
                0x00000000401dc91b                X509_STORE_CTX_set_flags
                0x00000000401dc92d                X509_STORE_CTX_set_time
                0x00000000401dc941                X509_STORE_CTX_set_verify_cb
                0x00000000401dc946                X509_STORE_CTX_get0_policy_tree
                0x00000000401dc94e                X509_STORE_CTX_get_explicit_policy
                0x00000000401dc955                X509_STORE_CTX_set_default
                0x00000000401dc979                X509_STORE_CTX_get0_param
                0x00000000401dc97e                X509_STORE_CTX_set0_param
                0x00000000401dcc90                X509_VERIFY_PARAM_free
                0x00000000401dcd18                X509_VERIFY_PARAM_new
                0x00000000401dcd93                X509_VERIFY_PARAM_set1_name
                0x00000000401dcdc7                X509_VERIFY_PARAM_set_flags
                0x00000000401dcde8                X509_VERIFY_PARAM_clear_flags
                0x00000000401dcdf5                X509_VERIFY_PARAM_get_flags
                0x00000000401dcdfa                X509_VERIFY_PARAM_set_purpose
                0x00000000401dce0c                X509_VERIFY_PARAM_set_trust
                0x00000000401dce1e                X509_VERIFY_PARAM_set_depth
                0x00000000401dce22                X509_VERIFY_PARAM_set_time
                0x00000000401dce2b                X509_VERIFY_PARAM_add0_policy
                0x00000000401dce6e                X509_VERIFY_PARAM_set1_policies
                0x00000000401dcf3d                X509_VERIFY_PARAM_inherit
                0x00000000401dd08e                X509_VERIFY_PARAM_set1
                0x00000000401dd0b6                X509_VERIFY_PARAM_get_depth
                0x00000000401dd0ba                X509_VERIFY_PARAM_add0_table
                0x00000000401dd13f                X509_VERIFY_PARAM_lookup
                0x00000000401dd197                X509_VERIFY_PARAM_table_cleanup
                0x00000000401dd1d0                X509_NAME_entry_count
                0x00000000401dd1ec                X509_NAME_get_index_by_OBJ
                0x00000000401dd262                X509_NAME_get_index_by_NID
                0x00000000401dd294                X509_NAME_get_entry
                0x00000000401dd2da                X509_NAME_get_text_by_OBJ
                0x00000000401dd340                X509_NAME_get_text_by_NID
                0x00000000401dd376                X509_NAME_delete_entry
                0x00000000401dd44a                X509_NAME_add_entry
                0x00000000401dd5c2                X509_NAME_ENTRY_set_object
                0x00000000401dd621                X509_NAME_ENTRY_set_data
                0x00000000401dd6f6                X509_NAME_ENTRY_create_by_OBJ
                0x00000000401dd7a0                X509_NAME_add_entry_by_OBJ
                0x00000000401dd7e4                X509_NAME_ENTRY_create_by_txt
                0x00000000401dd884                X509_NAME_add_entry_by_txt
                0x00000000401dd8c8                X509_NAME_ENTRY_create_by_NID
                0x00000000401dd93c                X509_NAME_add_entry_by_NID
                0x00000000401dd980                X509_NAME_ENTRY_get_object
                0x00000000401dd98f                X509_NAME_ENTRY_get_data
                0x00000000401dd9a0                X509_REQ_set_version
                0x00000000401dd9c0                X509_REQ_set_subject_name
                0x00000000401dd9ed                X509_REQ_set_pubkey
                0x00000000401dda1a                d2i_X509_ALGOR
                0x00000000401dda2d                i2d_X509_ALGOR
                0x00000000401dda40                X509_ALGOR_new
                0x00000000401dda53                X509_ALGOR_free
                0x00000000401dda66                d2i_X509_ALGORS
                0x00000000401dda79                i2d_X509_ALGORS
                0x00000000401dda8c                X509_ALGOR_dup
                0x00000000401ddaa2                X509_ALGOR_set0
                0x00000000401ddb43                X509_ALGOR_get0
                0x00000000401ddb79                d2i_X509_ATTRIBUTE
                0x00000000401ddb8c                i2d_X509_ATTRIBUTE
                0x00000000401ddb9f                X509_ATTRIBUTE_new
                0x00000000401ddbb2                X509_ATTRIBUTE_free
                0x00000000401ddbc5                X509_ATTRIBUTE_dup
                0x00000000401ddbdb                X509_ATTRIBUTE_create
                0x00000000401ddf38                d2i_X509_VAL
                0x00000000401ddf4b                i2d_X509_VAL
                0x00000000401ddf5e                X509_VAL_new
                0x00000000401ddf71                X509_VAL_free
                0x00000000401ddf84                DES_xcbc_encrypt
                0x00000000401de72f                OBJ_find_sigid_algs
                0x00000000401de7ae                OBJ_find_sigid_by_algs
                0x00000000401de839                OBJ_add_sigid
                0x00000000401de928                OBJ_sigid_free
                0x00000000401de96e                CRYPTO_cbc128_encrypt
                0x00000000401deab4                CRYPTO_cbc128_decrypt
                0x00000000401decdd                EVP_whirlpool
                0x00000000401ded06                EVP_PKEY_meth_find
                0x00000000401ded79                EVP_PKEY_meth_new
                0x00000000401dee95                EVP_PKEY_meth_free
                0x00000000401deeaf                EVP_PKEY_meth_add0
                0x00000000401def00                EVP_PKEY_CTX_free
                0x00000000401df07a                EVP_PKEY_CTX_new
                0x00000000401df08d                EVP_PKEY_CTX_new_id
                0x00000000401df0a2                EVP_PKEY_CTX_dup
                0x00000000401df19b                EVP_PKEY_CTX_ctrl
                0x00000000401df28e                EVP_PKEY_CTX_ctrl_str
                0x00000000401df369                EVP_PKEY_CTX_get_operation
                0x00000000401df36d                EVP_PKEY_CTX_set0_keygen_info
                0x00000000401df375                EVP_PKEY_CTX_set_data
                0x00000000401df37a                EVP_PKEY_CTX_get_data
                0x00000000401df37f                EVP_PKEY_CTX_get0_pkey
                0x00000000401df384                EVP_PKEY_CTX_get0_peerkey
                0x00000000401df389                EVP_PKEY_CTX_set_app_data
                0x00000000401df38e                EVP_PKEY_CTX_get_app_data
                0x00000000401df393                EVP_PKEY_meth_set_init
                0x00000000401df398                EVP_PKEY_meth_set_copy
                0x00000000401df39d                EVP_PKEY_meth_set_cleanup
                0x00000000401df3a2                EVP_PKEY_meth_set_paramgen
                0x00000000401df3ab                EVP_PKEY_meth_set_keygen
                0x00000000401df3b4                EVP_PKEY_meth_set_sign
                0x00000000401df3bd                EVP_PKEY_meth_set_verify
                0x00000000401df3c6                EVP_PKEY_meth_set_verify_recover
                0x00000000401df3cf                EVP_PKEY_meth_set_signctx
                0x00000000401df3d8                EVP_PKEY_meth_set_verifyctx
                0x00000000401df3e7                EVP_PKEY_meth_set_encrypt
                0x00000000401df3f6                EVP_PKEY_meth_set_decrypt
                0x00000000401df405                EVP_PKEY_meth_set_derive
                0x00000000401df414                EVP_PKEY_meth_set_ctrl
                0x00000000401df446                EVP_PKEY_asn1_get_count
                0x00000000401df469                EVP_PKEY_asn1_get0
                0x00000000401df4a1                EVP_PKEY_asn1_find
                0x00000000401df537                EVP_PKEY_asn1_find_str
                0x00000000401df5bf                EVP_PKEY_asn1_add0
                0x00000000401df610                EVP_PKEY_asn1_get0_info
                0x00000000401df65f                EVP_PKEY_get0_asn1
                0x00000000401df664                EVP_PKEY_asn1_copy
                0x00000000401df727                EVP_PKEY_asn1_free
                0x00000000401df75c                EVP_PKEY_asn1_new
                0x00000000401df8b4                EVP_PKEY_asn1_add_alias
                0x00000000401df8e4                EVP_PKEY_asn1_set_public
                0x00000000401df902                EVP_PKEY_asn1_set_private
                0x00000000401df90f                EVP_PKEY_asn1_set_param
                0x00000000401df936                EVP_PKEY_asn1_set_free
                0x00000000401df93e                EVP_PKEY_asn1_set_ctrl
                0x00000000401df950                EVP_PKEY_sign_init
                0x00000000401df9b6                EVP_PKEY_sign
                0x00000000401dfaa1                EVP_PKEY_verify_init
                0x00000000401dfb07                EVP_PKEY_verify
                0x00000000401dfb7a                EVP_PKEY_verify_recover_init
                0x00000000401dfbe0                EVP_PKEY_verify_recover
                0x00000000401dfccb                EVP_PKEY_encrypt_init
                0x00000000401dfd37                EVP_PKEY_encrypt
                0x00000000401dfe2b                EVP_PKEY_decrypt_init
                0x00000000401dfe97                EVP_PKEY_decrypt
                0x00000000401dff8b                EVP_PKEY_derive_init
                0x00000000401dfff7                EVP_PKEY_derive_set_peer
                0x00000000401e01d6                EVP_PKEY_derive
                0x00000000401e03ff                ASN1_PCTX_new
                0x00000000401e046e                ASN1_PCTX_free
                0x00000000401e047c                ASN1_PCTX_get_flags
                0x00000000401e0480                ASN1_PCTX_set_flags
                0x00000000401e0484                ASN1_PCTX_get_nm_flags
                0x00000000401e0489                ASN1_PCTX_set_nm_flags
                0x00000000401e048e                ASN1_PCTX_get_cert_flags
                0x00000000401e0493                ASN1_PCTX_set_cert_flags
                0x00000000401e0498                ASN1_PCTX_get_oid_flags
                0x00000000401e049d                ASN1_PCTX_set_oid_flags
                0x00000000401e04a2                ASN1_PCTX_get_str_flags
                0x00000000401e04a7                ASN1_PCTX_set_str_flags
                0x00000000401e04ac                asn1_template_print_ctx
                0x00000000401e0d7d                ASN1_item_print
                0x00000000401e0f57                EVP_DigestSignInit
                0x00000000401e0f6b                EVP_DigestVerifyInit
                0x00000000401e0f7f                EVP_DigestSignFinal
                0x00000000401e10a9                EVP_DigestVerifyFinal
                0x00000000401e1170                WHIRLPOOL_Init
                0x00000000401e118d                WHIRLPOOL_BitUpdate
                0x00000000401e1487                WHIRLPOOL_Update
                0x00000000401e154f                WHIRLPOOL_Final
                0x00000000401e165b                WHIRLPOOL
                0x00000000401e46ec                DHparams_print
                0x00000000401e6506                whirlpool_block
                0x00000000401e71a7                EVP_PKEY_paramgen_init
                0x00000000401e720d                EVP_PKEY_paramgen
                0x00000000401e72c7                EVP_PKEY_keygen_init
                0x00000000401e732d                EVP_PKEY_keygen
                0x00000000401e73e7                EVP_PKEY_CTX_set_cb
                0x00000000401e73ec                EVP_PKEY_CTX_get_cb
                0x00000000401e73f1                evp_pkey_set_cb_translate
                0x00000000401e7404                EVP_PKEY_CTX_get_keygen_info
                0x00000000401e742d                EVP_PKEY_new_mac_key
                0x00000000401e758d                CMS_SignedData_init
                0x00000000401e75a4                cms_set1_SignerIdentifier
                0x00000000401e76a5                cms_SignerIdentifier_get0_signer_id
                0x00000000401e76ef                cms_SignerIdentifier_cert_cmp
                0x00000000401e776e                CMS_get0_SignerInfos
                0x00000000401e778c                CMS_get0_signers
                0x00000000401e7814                CMS_SignerInfo_set1_signer_cert
                0x00000000401e7876                CMS_SignerInfo_get0_signer_id
                0x00000000401e7881                CMS_SignerInfo_cert_cmp
                0x00000000401e7893                CMS_set1_signers_certs
                0x00000000401e79bd                CMS_SignerInfo_get0_algs
                0x00000000401e79ef                CMS_SignerInfo_sign
                0x00000000401e7c5d                cms_SignedData_final
                0x00000000401e7e5e                CMS_SignerInfo_verify
                0x00000000401e7f84                cms_SignedData_init_bio
                0x00000000401e812a                CMS_SignerInfo_verify_content
                0x00000000401e82f1                CMS_add_smimecap
                0x00000000401e8347                CMS_add_simple_smimecap
                0x00000000401e846a                CMS_add_standard_smimecap
                0x00000000401e8574                CMS_add1_signer
                0x00000000401e8abd                CMS_get0_RecipientInfos
                0x00000000401e8adb                CMS_RecipientInfo_type
                0x00000000401e8ade                CMS_EnvelopedData_create
                0x00000000401e8bcd                CMS_add1_recipient_cert
                0x00000000401e8dbf                CMS_RecipientInfo_ktri_get0_algs
                0x00000000401e8e27                CMS_RecipientInfo_ktri_get0_signer_id
                0x00000000401e8e68                CMS_RecipientInfo_ktri_cert_cmp
                0x00000000401e8ea9                CMS_RecipientInfo_set0_pkey
                0x00000000401e8eeb                CMS_RecipientInfo_kekri_id_cmp
                0x00000000401e8f4e                CMS_add0_recipient_key
                0x00000000401e91c5                CMS_RecipientInfo_kekri_get0_id
                0x00000000401e926f                CMS_RecipientInfo_set0_key
                0x00000000401e92b5                CMS_RecipientInfo_decrypt
                0x00000000401e9686                cms_EnvelopedData_init_bio
                0x00000000401e9aa0                EC_KEY_print
                0x00000000401e9afe                ECParameters_print
                0x00000000401e9b4f                ECPKParameters_print
                0x00000000401ea56f                CMS_signed_get_attr_count
                0x00000000401ea581                CMS_signed_get_attr_by_NID
                0x00000000401ea593                CMS_signed_get_attr_by_OBJ
                0x00000000401ea5a5                CMS_signed_get_attr
                0x00000000401ea5b7                CMS_signed_delete_attr
                0x00000000401ea5c9                CMS_signed_add1_attr
                0x00000000401ea5e4                CMS_signed_add1_attr_by_OBJ
                0x00000000401ea5ff                CMS_signed_add1_attr_by_NID
                0x00000000401ea61a                CMS_signed_add1_attr_by_txt
                0x00000000401ea635                CMS_signed_get0_data_by_OBJ
                0x00000000401ea647                CMS_unsigned_get_attr_count
                0x00000000401ea659                CMS_unsigned_get_attr_by_NID
                0x00000000401ea66b                CMS_unsigned_get_attr_by_OBJ
                0x00000000401ea67d                CMS_unsigned_get_attr
                0x00000000401ea68f                CMS_unsigned_delete_attr
                0x00000000401ea6a1                CMS_unsigned_add1_attr
                0x00000000401ea6bc                CMS_unsigned_add1_attr_by_OBJ
                0x00000000401ea6d7                CMS_unsigned_add1_attr_by_NID
                0x00000000401ea6f2                CMS_unsigned_add1_attr_by_txt
                0x00000000401ea70d                CMS_unsigned_get0_data_by_OBJ
                0x00000000401ea863                d2i_CMS_ContentInfo
                0x00000000401ea876                i2d_CMS_ContentInfo
                0x00000000401ea889                CMS_ContentInfo_new
                0x00000000401ea89c                CMS_ContentInfo_free
                0x00000000401ea8af                CMS_ContentInfo_print_ctx
                0x00000000401ea8c5                CMS_get0_type
                0x00000000401ea8c9                CMS_get0_content
                0x00000000401ea997                cms_content_bio
                0x00000000401ea9e9                CMS_dataInit
                0x00000000401eaacf                CMS_dataFinal
                0x00000000401eac30                CMS_get0_eContentType
                0x00000000401eac4d                CMS_set1_eContentType
                0x00000000401eaca0                CMS_is_detached
                0x00000000401eacc4                CMS_set_detached
                0x00000000401ead50                cms_Data_create
                0x00000000401ead7d                cms_DigestAlgorithm_set
                0x00000000401eadc1                cms_DigestAlgorithm_init_bio
                0x00000000401eaeb5                cms_DigestAlgorithm_find_ctx
                0x00000000401eaf8c                CMS_add0_CertificateChoices
                0x00000000401eb005                CMS_add0_cert
                0x00000000401eb0b4                CMS_add1_cert
                0x00000000401eb0ef                CMS_add0_RevocationInfoChoice
                0x00000000401eb168                CMS_add0_crl
                0x00000000401eb18e                CMS_add1_crl
                0x00000000401eb1c9                CMS_get1_certs
                0x00000000401eb288                CMS_get1_crls
                0x00000000401eb46b                cms_EncryptedContent_init_bio
                0x00000000401eb92a                cms_EncryptedContent_init
                0x00000000401eb9a0                CMS_EncryptedData_set1_key
                0x00000000401eba95                cms_EncryptedData_init_bio
                0x00000000401ebac0                AES_wrap_key
                0x00000000401ebbef                AES_unwrap_key
                0x00000000401ebd51                cms_DigestedData_create
                0x00000000401ebdd8                cms_DigestedData_init_bio
                0x00000000401ebdee                cms_DigestedData_do_final
                0x00000000401ebee9                CMS_stream
                0x00000000401ebf68                d2i_CMS_bio
                0x00000000401ebf81                i2d_CMS_bio
                0x00000000401ebf9a                PEM_read_bio_CMS
                0x00000000401ebfbe                PEM_write_bio_CMS
                0x00000000401ec001                BIO_new_CMS
                0x00000000401ec014                i2d_CMS_bio_stream
                0x00000000401ec028                PEM_write_bio_CMS_stream
                0x00000000401ec042                SMIME_write_CMS
                0x00000000401ec0b7                SMIME_read_CMS
                0x00000000401ec952                SMIME_read_ASN1
                0x00000000401ecd78                SMIME_crlf_copy
                0x00000000401eceb4                i2d_ASN1_bio_stream
                0x00000000401ed01d                PEM_write_bio_ASN1_stream
                0x00000000401ed08d                SMIME_write_ASN1
                0x00000000401ed710                SMIME_text
                0x00000000401eda0f                BIO_new_NDEF
                0x00000000401ee165                BIO_f_asn1
                0x00000000401ee16b                BIO_asn1_set_prefix
                0x00000000401ee18f                BIO_asn1_get_prefix
                0x00000000401ee1c8                BIO_asn1_set_suffix
                0x00000000401ee1ec                BIO_asn1_get_suffix
                0x00000000401ee230                ASN1_BIT_STRING_set
                0x00000000401ee23e                i2c_ASN1_BIT_STRING
                0x00000000401ee325                c2i_ASN1_BIT_STRING
                0x00000000401ee491                ASN1_BIT_STRING_set_bit
                0x00000000401ee5f1                ASN1_BIT_STRING_get_bit
                0x00000000401ee641                ASN1_BIT_STRING_check
                0x00000000401ee698                i2d_ASN1_BOOLEAN
                0x00000000401ee70c                d2i_ASN1_BOOLEAN
                0x00000000401ee7b0                d2i_ASN1_type_bytes
                0x00000000401ee95c                i2d_ASN1_bytes
                0x00000000401ee9fe                d2i_ASN1_bytes
                0x00000000401eedb0                ASN1_GENERALIZEDTIME_check
                0x00000000401ef019                ASN1_GENERALIZEDTIME_set_string
                0x00000000401ef082                ASN1_GENERALIZEDTIME_adj
                0x00000000401ef1c7                ASN1_GENERALIZEDTIME_set
                0x00000000401ef42b                ASN1_mbstring_ncopy
                0x00000000401ef944                ASN1_mbstring_copy
                0x00000000401ef960                ASN1_OCTET_STRING_dup
                0x00000000401ef96e                ASN1_OCTET_STRING_cmp
                0x00000000401ef97c                ASN1_OCTET_STRING_set
                0x00000000401ef990                ASN1_PRINTABLE_type
                0x00000000401efa1a                ASN1_UNIVERSALSTRING_to_string
                0x00000000401efb16                ASN1_STRING_set_default_mask
                0x00000000401efb1e                ASN1_STRING_get_default_mask
                0x00000000401efb26                ASN1_STRING_set_default_mask_asc
                0x00000000401efbe5                ASN1_STRING_TABLE_get
                0x00000000401efc49                ASN1_STRING_set_by_NID
                0x00000000401efcf4                ASN1_STRING_TABLE_add
                0x00000000401efe08                ASN1_STRING_TABLE_cleanup
                0x00000000401efe40                ASN1_TYPE_get
                0x00000000401efe55                ASN1_TYPE_set
                0x00000000401efeac                ASN1_TYPE_set1
                0x00000000401eff2b                ASN1_TYPE_cmp
                0x00000000401eff7d                AES_cfb128_encrypt
                0x00000000401eff9b                AES_cfb1_encrypt
                0x00000000401effb9                AES_cfb8_encrypt
                0x00000000401effe0                AES_ecb_encrypt
                0x00000000401efffa                AES_ofb128_encrypt
                0x00000000401f0010                ASN1_seq_unpack
                0x00000000401f0072                ASN1_seq_pack
                0x00000000401f0162                ASN1_unpack_string
                0x00000000401f01b2                ASN1_pack_string
                0x00000000401f02d1                ASN1_item_pack
                0x00000000401f03e1                ASN1_item_unpack
                0x00000000401f0dc3                BIO_f_buffer
                0x00000000401f0dd0                BF_cfb64_encrypt
                0x00000000401f0fba                BF_options
                0x00000000401f0fc0                BF_ecb_encrypt
                0x00000000401f1070                BF_encrypt
                0x00000000401f1469                BF_decrypt
                0x00000000401f1862                BF_cbc_encrypt
                0x00000000401f1e0e                BF_ofb64_encrypt
                0x00000000401f1fb1                BF_set_key
                0x00000000401f2d37                BIO_f_base64
                0x00000000401f33ce                BIO_f_cipher
                0x00000000401f33d4                BIO_set_cipher
                0x00000000401f37ac                BIO_f_md
                0x00000000401f37c0                BN_mod_exp2_mont
                0x00000000401f3f90                BN_kronecker
                0x00000000401f4261                BN_get0_nist_prime_192
                0x00000000401f4267                BN_get0_nist_prime_224
                0x00000000401f426d                BN_get0_nist_prime_256
                0x00000000401f4273                BN_get0_nist_prime_384
                0x00000000401f4279                BN_get0_nist_prime_521
                0x00000000401f427f                BN_nist_mod_192
                0x00000000401f44fb                BN_nist_mod_224
                0x00000000401f4851                BN_nist_mod_256
                0x00000000401f4d28                BN_nist_mod_384
                0x00000000401f5366                BN_nist_mod_521
                0x00000000401f5540                BN_mod_sqrt
                0x00000000401f5e70                BIO_s_null
                0x00000000401f5e80                CAST_cfb64_encrypt
                0x00000000401f606a                CAST_ecb_encrypt
                0x00000000401f611a                CAST_encrypt
                0x00000000401f657d                CAST_decrypt
                0x00000000401f69c7                CAST_cbc_encrypt
                0x00000000401f6f73                CAST_ofb64_encrypt
                0x00000000401f7116                CAST_set_key
                0x00000000401f7b20                DES_ede3_cfb64_encrypt
                0x00000000401f7d61                DES_ede3_cfb_encrypt
                0x00000000401f85b0                DES_cfb64_encrypt
                0x00000000401f87d6                DES_cfb_encrypt
                0x00000000401f8ec7                CONF_modules_load
                0x00000000401f9384                CONF_modules_finish
                0x00000000401f93f1                CONF_modules_unload
                0x00000000401f9493                CONF_module_add
                0x00000000401f94b8                CONF_modules_free
                0x00000000401f94d0                CONF_imodule_get_name
                0x00000000401f94d5                CONF_imodule_get_value
                0x00000000401f94da                CONF_imodule_get_usr_data
                0x00000000401f94df                CONF_imodule_set_usr_data
                0x00000000401f94e4                CONF_imodule_get_module
                0x00000000401f94e8                CONF_imodule_get_flags
                0x00000000401f94ed                CONF_imodule_set_flags
                0x00000000401f94f2                CONF_module_get_usr_data
                0x00000000401f94f7                CONF_module_set_usr_data
                0x00000000401f94fc                CONF_get1_default_config_file
                0x00000000401f9578                CONF_modules_load_file
                0x00000000401f9631                CONF_parse_list
                0x00000000401f973c                DES_encrypt1
                0x00000000401f9b4c                DES_encrypt2
                0x00000000401f9e5f                DES_encrypt3
                0x00000000401f9fb2                DES_decrypt3
                0x00000000401fa108                DES_ncbc_encrypt
                0x00000000401fa740                DES_ede3_cbc_encrypt
                0x00000000401fadef                d2i_DHparams
                0x00000000401fae02                i2d_DHparams
                0x00000000401fae15                DHparams_dup
                0x00000000401fae30                DH_generate_parameters_ex
                0x00000000401fb400                DH_generate_key
                0x00000000401fb413                DH_compute_key
                0x00000000401fb426                DH_OpenSSL
                0x00000000401fb430                DH_set_default_method
                0x00000000401fb438                DH_get_default_method
                0x00000000401fb466                DH_set_method
                0x00000000401fb4a5                DH_new_method
                0x00000000401fb5c7                DH_new
                0x00000000401fb5da                DH_free
                0x00000000401fb6ad                DH_up_ref
                0x00000000401fb6dd                DH_get_ex_new_index
                0x00000000401fb6ff                DH_set_ex_data
                0x00000000401fb711                DH_get_ex_data
                0x00000000401fb723                DH_size
                0x00000000401fb750                dsa_builtin_paramgen
                0x00000000401fbfaf                DSA_generate_parameters_ex
                0x00000000401fc050                DSA_generate_key
                0x00000000401fc19c                DSA_do_verify
                0x00000000401fc1ac                DSA_verify
                0x00000000401fc230                DSO_set_default_method
                0x00000000401fc238                DSO_get_default_method
                0x00000000401fc240                DSO_get_method
                0x00000000401fc244                DSO_set_method
                0x00000000401fc24b                DSO_new_method
                0x00000000401fc34a                DSO_new
                0x00000000401fc35d                DSO_free
                0x00000000401fc46a                DSO_flags
                0x00000000401fc479                DSO_up_ref
                0x00000000401fc4ce                DSO_bind_var
                0x00000000401fc561                DSO_bind_func
                0x00000000401fc5f4                DSO_ctrl
                0x00000000401fc68c                DSO_set_name_converter
                0x00000000401fc6d4                DSO_get_filename
                0x00000000401fc70b                DSO_set_filename
                0x00000000401fc7ef                DSO_load
                0x00000000401fc988                DSO_merge
                0x00000000401fc9ec                DSO_convert_filename
                0x00000000401fcaec                DSO_get_loaded_filename
                0x00000000401fcb23                DSO_pathbyaddr
                0x00000000401fcb80                DSO_global_lookup
                0x00000000401fcbcb                DSO_METHOD_openssl
                0x00000000401fcbe0                ec_GF2m_simple_is_at_infinity
                0x00000000401fcbeb                ec_GF2m_simple_points_make_affine
                0x00000000401fcc42                ec_GF2m_simple_group_init
                0x00000000401fcc6e                ec_GF2m_simple_point_init
                0x00000000401fcc94                ec_GF2m_simple_group_finish
                0x00000000401fccbb                ec_GF2m_simple_point_finish
                0x00000000401fccdc                ec_GF2m_simple_group_clear_finish
                0x00000000401fcd3f                ec_GF2m_simple_point_clear_finish
                0x00000000401fcd67                ec_GF2m_simple_group_get_curve
                0x00000000401fcdd8                ec_GF2m_simple_point_copy
                0x00000000401fce3f                ec_GF2m_simple_group_copy
                0x00000000401fcfdb                ec_GF2m_simple_group_set_curve
                0x00000000401fd177                ec_GF2m_simple_group_get_degree
                0x00000000401fd18c                ec_GF2m_simple_group_check_discriminant
                0x00000000401fd245                ec_GF2m_simple_point_set_to_infinity
                0x00000000401fd268                ec_GF2m_simple_point_set_affine_coordinates
                0x00000000401fd32f                ec_GF2m_simple_point_get_affine_coordinates
                0x00000000401fd40d                ec_GF2m_simple_is_on_curve
                0x00000000401fd5ae                ec_GF2m_simple_set_compressed_coordinates
                0x00000000401fd843                ec_GF2m_simple_cmp
                0x00000000401fd9e0                ec_GF2m_simple_make_affine
                0x00000000401fdaee                ec_GF2m_simple_point2oct
                0x00000000401fdea3                ec_GF2m_simple_oct2point
                0x00000000401fe25f                ec_GF2m_simple_add
                0x00000000401fe748                ec_GF2m_simple_dbl
                0x00000000401fe75c                ec_GF2m_simple_invert
                0x00000000401fe7aa                ec_GF2m_simple_field_mul
                0x00000000401fe7cb                ec_GF2m_simple_field_sqr
                0x00000000401fe7e9                ec_GF2m_simple_field_div
                0x00000000401fe807                EC_GF2m_simple_method
                0x00000000401fe80d                EC_POINT_point2bn
                0x00000000401fe8c3                EC_POINT_bn2point
                0x00000000401fe9cc                EC_POINT_point2hex
                0x00000000401feae5                EC_POINT_hex2point
                0x00000000401feb41                ECDH_compute_key
                0x00000000401febbc                ECDH_set_default_method
                0x00000000401febc4                ECDH_get_default_method
                0x00000000401fec92                ecdh_check
                0x00000000401fed04                ECDH_set_method
                0x00000000401fed24                ECDH_get_ex_new_index
                0x00000000401fed46                ECDH_set_ex_data
                0x00000000401fed78                ECDH_get_ex_data
                0x00000000401ff16a                ECDH_OpenSSL
                0x00000000401ff19c                ECDSA_set_default_method
                0x00000000401ff1a4                ECDSA_get_default_method
                0x00000000401ff272                ecdsa_check
                0x00000000401ff2e4                ECDSA_set_method
                0x00000000401ff304                ECDSA_size
                0x00000000401ff3bd                ECDSA_get_ex_new_index
                0x00000000401ff3df                ECDSA_set_ex_data
                0x00000000401ff411                ECDSA_get_ex_data
                0x0000000040200156                ECDSA_OpenSSL
                0x000000004020015c                ECDSA_do_sign_ex
                0x00000000402001a6                ECDSA_do_sign
                0x00000000402001c1                ECDSA_sign_ex
                0x000000004020023c                ECDSA_sign
                0x000000004020025d                ECDSA_sign_setup
                0x00000000402002a3                ECDSA_do_verify
                0x00000000402002ec                ECDSA_verify
                0x0000000040200370                EVP_EncodeInit
                0x0000000040200385                EVP_EncodeBlock
                0x00000000402004c4                EVP_EncodeUpdate
                0x00000000402005ec                EVP_EncodeFinal
                0x0000000040200630                EVP_DecodeInit
                0x000000004020064c                EVP_DecodeBlock
                0x00000000402007fc                EVP_DecodeUpdate
                0x0000000040200b3b                EVP_DecodeFinal
                0x0000000040200b95                ERR_print_errors_cb
                0x0000000040200c65                ERR_print_errors
                0x0000000040200cb8                EVP_PBE_alg_add_type
                0x0000000040200d57                EVP_PBE_alg_add
                0x0000000040200daf                EVP_PBE_find
                0x0000000040200e67                EVP_PBE_CipherInit
                0x000000004020101e                EVP_PBE_cleanup
                0x0000000040201050                HMAC_Init_ex
                0x000000004020122f                HMAC_Update
                0x0000000040201241                HMAC_Final
                0x00000000402012b4                HMAC_CTX_init
                0x00000000402012d5                HMAC_Init
                0x000000004020131c                HMAC_CTX_copy
                0x0000000040201392                HMAC_CTX_cleanup
                0x00000000402013c5                HMAC
                0x000000004020146b                HMAC_CTX_set_flags
                0x000000004020149d                PKCS12_PBE_add
                0x000000004020149f                PKCS12_PBE_keyivgen
                0x00000000402016a0                PKCS12_key_gen_uni
                0x0000000040201b6b                PKCS12_key_gen_asc
                0x0000000040201c3e                OPENSSL_asc2uni
                0x0000000040201cd3                OPENSSL_uni2asc
                0x0000000040201d4b                i2d_PKCS12_bio
                0x0000000040201d64                d2i_PKCS12_bio
                0x0000000040201d7d                PKCS12_x5092certbag
                0x0000000040201d9a                PKCS12_x509crl2certbag
                0x0000000040201db7                PKCS12_certbag2x509
                0x0000000040201e01                PKCS12_certbag2x509crl
                0x0000000040201e4b                PKCS5_PBE_add
                0x0000000040201e4d                PKCS5_PBE_keyivgen
                0x0000000040202116                d2i_PBEPARAM
                0x0000000040202129                i2d_PBEPARAM
                0x000000004020213c                PBEPARAM_new
                0x000000004020214f                PBEPARAM_free
                0x0000000040202162                PKCS5_pbe_set0_algor
                0x000000004020230b                PKCS5_pbe_set
                0x0000000040202485                X509_policy_tree_free
                0x0000000040202524                X509_policy_check
                0x0000000040202ee0                PEM_def_callback
                0x0000000040202f0d                PEM_proc_type
                0x0000000040202f7a                PEM_dek_info
                0x000000004020303f                PEM_do_header
                0x0000000040203217                PEM_get_EVP_CIPHER_INFO
                0x00000000402034ab                PEM_write_bio
                0x0000000040203725                PEM_ASN1_write_bio
                0x0000000040203b24                PEM_read_bio
                0x00000000402041b9                pem_check_suffix
                0x0000000040204219                PEM_bytes_read_bio
                0x0000000040204583                PEM_ASN1_read_bio
                0x0000000040204622                PKCS7_add_attrib_smimecap
                0x000000004020468c                PKCS7_get_smimecap
                0x00000000402046dc                PKCS7_simple_smimecap
                0x000000004020480a                PKCS7_add_attrib_content_type
                0x000000004020485c                PKCS7_add0_attrib_signing_time
                0x00000000402048b2                PKCS7_add1_attrib_digest
                0x0000000040204930                RSA_verify_PKCS1_PSS
                0x0000000040204c86                RSA_padding_add_PKCS1_PSS
                0x0000000040204f4c                ASN1_bn_print
                0x00000000402052cc                i2v_GENERAL_NAME
                0x00000000402054f4                i2v_GENERAL_NAMES
                0x0000000040205550                GENERAL_NAME_print
                0x00000000402056db                a2i_GENERAL_NAME
                0x0000000040205a76                v2i_GENERAL_NAME_ex
                0x0000000040205bd0                v2i_GENERAL_NAME
                0x0000000040205f15                v2i_GENERAL_NAMES
                0x0000000040205ff3                d2i_BASIC_CONSTRAINTS
                0x0000000040206006                i2d_BASIC_CONSTRAINTS
                0x0000000040206019                BASIC_CONSTRAINTS_new
                0x000000004020602c                BASIC_CONSTRAINTS_free
                0x000000004020677f                X509V3_EXT_nconf
                0x0000000040206843                X509V3_EXT_nconf_nid
                0x00000000402068bf                X509V3_EXT_i2d
                0x000000004020690e                X509V3_EXT_add_nconf_sk
                0x00000000402069af                X509V3_EXT_add_nconf
                0x00000000402069d0                X509V3_EXT_CRL_add_nconf
                0x00000000402069f1                X509V3_EXT_REQ_add_nconf
                0x0000000040206a49                X509V3_get_string
                0x0000000040206a97                X509V3_get_section
                0x0000000040206ae6                X509V3_string_free
                0x0000000040206b08                X509V3_section_free
                0x0000000040206b2a                X509V3_set_nconf
                0x0000000040206b37                X509V3_set_ctx
                0x0000000040206b4b                X509V3_EXT_conf
                0x0000000040206b85                X509V3_EXT_conf_nid
                0x0000000040206bbd                X509V3_set_conf_lhash
                0x0000000040206bca                X509V3_EXT_add_conf
                0x0000000040206c04                X509V3_EXT_CRL_add_conf
                0x0000000040206c3e                X509V3_EXT_REQ_add_conf
                0x0000000040206dba                ACCESS_DESCRIPTION_free
                0x0000000040206dcd                d2i_ACCESS_DESCRIPTION
                0x0000000040206de0                i2d_ACCESS_DESCRIPTION
                0x0000000040206df3                ACCESS_DESCRIPTION_new
                0x0000000040207022                d2i_AUTHORITY_INFO_ACCESS
                0x0000000040207035                i2d_AUTHORITY_INFO_ACCESS
                0x0000000040207048                AUTHORITY_INFO_ACCESS_new
                0x000000004020705b                AUTHORITY_INFO_ACCESS_free
                0x000000004020706e                i2a_ACCESS_DESCRIPTION
                0x00000000402070bb                X509V3_EXT_add
                0x0000000040207144                X509V3_EXT_get_nid
                0x00000000402071c3                X509V3_EXT_get
                0x00000000402071e4                X509V3_EXT_add_list
                0x0000000040207212                X509V3_EXT_add_alias
                0x000000004020730c                X509V3_EXT_cleanup
                0x0000000040207331                X509V3_add_standard_extensions
                0x0000000040207337                X509V3_EXT_d2i
                0x0000000040207390                X509V3_get_d2i
                0x00000000402074bf                X509V3_add1_i2d
                0x0000000040208428                d2i_PROXY_POLICY
                0x000000004020843b                i2d_PROXY_POLICY
                0x000000004020844e                PROXY_POLICY_new
                0x0000000040208461                PROXY_POLICY_free
                0x0000000040208474                d2i_PROXY_CERT_INFO_EXTENSION
                0x0000000040208487                i2d_PROXY_CERT_INFO_EXTENSION
                0x000000004020849a                PROXY_CERT_INFO_EXTENSION_new
                0x00000000402084ad                PROXY_CERT_INFO_EXTENSION_free
                0x0000000040208554                d2i_PKEY_USAGE_PERIOD
                0x0000000040208567                i2d_PKEY_USAGE_PERIOD
                0x000000004020857a                PKEY_USAGE_PERIOD_new
                0x000000004020858d                PKEY_USAGE_PERIOD_free
                0x00000000402085a0                i2s_ASN1_OCTET_STRING
                0x00000000402085b8                s2i_ASN1_OCTET_STRING
                0x000000004020884d                d2i_SXNETID
                0x0000000040208860                i2d_SXNETID
                0x0000000040208873                SXNETID_new
                0x0000000040208886                SXNETID_free
                0x0000000040208899                d2i_SXNET
                0x00000000402088ac                i2d_SXNET
                0x00000000402088bf                SXNET_new
                0x00000000402088d2                SXNET_free
                0x00000000402088e5                SXNET_get_id_INTEGER
                0x0000000040208940                SXNET_add_id_INTEGER
                0x0000000040208ad8                SXNET_add_id_asc
                0x0000000040208b90                SXNET_add_id_ulong
                0x0000000040208c0d                SXNET_get_id_asc
                0x0000000040208c6e                SXNET_get_id_ulong
                0x0000000040208ce5                X509_get_default_private_dir
                0x0000000040208ceb                X509_get_default_cert_area
                0x0000000040208cf1                X509_get_default_cert_dir
                0x0000000040208cf7                X509_get_default_cert_file
                0x0000000040208cfd                X509_get_default_cert_dir_env
                0x0000000040208d03                X509_get_default_cert_file_env
                0x0000000040208e81                X509_LOOKUP_new
                0x0000000040208efd                X509_LOOKUP_free
                0x0000000040208f24                X509_LOOKUP_init
                0x0000000040208f52                X509_LOOKUP_shutdown
                0x0000000040208f7d                X509_LOOKUP_ctrl
                0x0000000040208fa9                X509_LOOKUP_by_subject
                0x0000000040208fe1                X509_LOOKUP_by_issuer_serial
                0x000000004020900d                X509_LOOKUP_by_fingerprint
                0x0000000040209039                X509_LOOKUP_by_alias
                0x0000000040209065                X509_STORE_new
                0x0000000040209157                X509_STORE_free
                0x00000000402091e8                X509_STORE_add_lookup
                0x000000004020926a                X509_OBJECT_up_ref_count
                0x00000000402092c7                X509_OBJECT_free_contents
                0x00000000402092f2                X509_OBJECT_idx_by_subject
                0x0000000040209305                X509_OBJECT_retrieve_by_subject
                0x0000000040209326                X509_STORE_get_by_subject
                0x000000004020942e                X509_STORE_get1_certs
                0x00000000402095ed                X509_STORE_get1_crls
                0x00000000402097a7                X509_OBJECT_retrieve_match
                0x0000000040209888                X509_STORE_add_cert
                0x000000004020998a                X509_STORE_add_crl
                0x0000000040209a8c                X509_STORE_CTX_get1_issuer
                0x0000000040209c36                X509_STORE_set_flags
                0x0000000040209c48                X509_STORE_set_depth
                0x0000000040209c5f                X509_STORE_set_purpose
                0x0000000040209c71                X509_STORE_set_trust
                0x0000000040209c83                X509_STORE_set1_param
                0x0000000040209c95                X509_STORE_set_verify_cb
                0x0000000040209df8                X509_TRUST_set_default
                0x0000000040209e07                X509_TRUST_get_count
                0x0000000040209e2a                X509_TRUST_get0
                0x0000000040209e63                X509_TRUST_get_by_id
                0x0000000040209ea5                X509_check_trust
                0x0000000040209eef                X509_TRUST_set
                0x0000000040209f3b                X509_TRUST_add
                0x000000004020a0d1                X509_TRUST_cleanup
                0x000000004020a115                X509_TRUST_get_flags
                0x000000004020a119                X509_TRUST_get0_name
                0x000000004020a11e                X509_TRUST_get_trust
                0x000000004020a27b                CRYPTO_cfb128_encrypt
                0x000000004020a4fe                CRYPTO_cfb128_1_encrypt
                0x000000004020a5d2                CRYPTO_cfb128_8_encrypt
                0x000000004020a63c                CRYPTO_ofb128_encrypt
                0x000000004020a7b4                i2d_ASN1_SET
                0x000000004020aa3d                d2i_ASN1_SET
                0x000000004020b2e3                ASN1_generate_v3
                0x000000004020bba5                ASN1_generate_nconf
                0x000000004020bda7                BN_GF2m_add
                0x000000004020be7d                BN_GF2m_mod_arr
                0x000000004020c10f                BN_GF2m_mod_sqr_arr
                0x000000004020c28e                BN_GF2m_mod_mul_arr
                0x000000004020c505                BN_GF2m_mod_exp_arr
                0x000000004020c621                BN_GF2m_mod_sqrt_arr
                0x000000004020c6b2                BN_GF2m_mod_solve_quad_arr
                0x000000004020ca76                BN_GF2m_poly2arr
                0x000000004020cb07                BN_GF2m_mod
                0x000000004020cbb1                BN_GF2m_mod_inv
                0x000000004020cd92                BN_GF2m_mod_mul
                0x000000004020ce4e                BN_GF2m_mod_div
                0x000000004020ced8                BN_GF2m_mod_sqr
                0x000000004020cf8c                BN_GF2m_mod_exp
                0x000000004020d048                BN_GF2m_mod_sqrt
                0x000000004020d0fc                BN_GF2m_mod_solve_quad
                0x000000004020d1b0                BN_GF2m_arr2poly
                0x000000004020d203                BN_GF2m_mod_inv_arr
                0x000000004020d275                BN_GF2m_mod_div_arr
                0x000000004020d300                CONF_set_nconf
                0x000000004020d33a                CONF_set_default_method
                0x000000004020d347                CONF_load
                0x000000004020d374                NCONF_new
                0x000000004020d3b4                NCONF_free
                0x000000004020d3c9                NCONF_free_data
                0x000000004020d3de                CONF_free
                0x000000004020d3fe                NCONF_load
                0x000000004020d436                NCONF_load_bio
                0x000000004020d46e                CONF_load_bio
                0x000000004020d4ae                NCONF_get_section
                0x000000004020d50e                CONF_get_section
                0x000000004020d543                NCONF_get_string
                0x000000004020d5d0                CONF_get_string
                0x000000004020d60c                NCONF_get_number_e
                0x000000004020d6a8                CONF_get_number
                0x000000004020d701                NCONF_dump_bio
                0x000000004020d739                CONF_dump_bio
                0x000000004020d770                DH_check
                0x000000004020d887                DH_check_pub_key
                0x000000004020d916                DSO_METHOD_null
                0x000000004020e218                ec_GF2m_simple_mul
                0x000000004020e4b3                ec_GF2m_precompute_mult
                0x000000004020e4c1                ec_GF2m_have_precompute_mult
                0x000000004020e4cf                d2i_ECDSA_SIG
                0x000000004020e4e2                i2d_ECDSA_SIG
                0x000000004020e4f5                ECDSA_SIG_new
                0x000000004020e508                ECDSA_SIG_free
                0x000000004020e520                EVP_set_pw_prompt
                0x000000004020e54f                EVP_get_pw_prompt
                0x000000004020e565                EVP_read_pw_string_min
                0x000000004020e624                EVP_read_pw_string
                0x000000004020e63f                EVP_BytesToKey
                0x000000004020e8a0                i2a_ASN1_INTEGER
                0x000000004020e9e2                a2i_ASN1_INTEGER
                0x000000004020eccf                i2a_ASN1_STRING
                0x000000004020ede4                a2i_ASN1_STRING
                0x000000004020f08c                d2i_OCSP_SIGNATURE
                0x000000004020f09f                i2d_OCSP_SIGNATURE
                0x000000004020f0b2                OCSP_SIGNATURE_new
                0x000000004020f0c5                OCSP_SIGNATURE_free
                0x000000004020f0d8                d2i_OCSP_CERTID
                0x000000004020f0eb                i2d_OCSP_CERTID
                0x000000004020f0fe                OCSP_CERTID_new
                0x000000004020f111                OCSP_CERTID_free
                0x000000004020f124                d2i_OCSP_ONEREQ
                0x000000004020f137                i2d_OCSP_ONEREQ
                0x000000004020f14a                OCSP_ONEREQ_new
                0x000000004020f15d                OCSP_ONEREQ_free
                0x000000004020f170                d2i_OCSP_REQINFO
                0x000000004020f183                i2d_OCSP_REQINFO
                0x000000004020f196                OCSP_REQINFO_new
                0x000000004020f1a9                OCSP_REQINFO_free
                0x000000004020f1bc                d2i_OCSP_REQUEST
                0x000000004020f1cf                i2d_OCSP_REQUEST
                0x000000004020f1e2                OCSP_REQUEST_new
                0x000000004020f1f5                OCSP_REQUEST_free
                0x000000004020f208                d2i_OCSP_RESPBYTES
                0x000000004020f21b                i2d_OCSP_RESPBYTES
                0x000000004020f22e                OCSP_RESPBYTES_new
                0x000000004020f241                OCSP_RESPBYTES_free
                0x000000004020f254                d2i_OCSP_RESPONSE
                0x000000004020f267                i2d_OCSP_RESPONSE
                0x000000004020f27a                OCSP_RESPONSE_new
                0x000000004020f28d                OCSP_RESPONSE_free
                0x000000004020f2a0                d2i_OCSP_RESPID
                0x000000004020f2b3                i2d_OCSP_RESPID
                0x000000004020f2c6                OCSP_RESPID_new
                0x000000004020f2d9                OCSP_RESPID_free
                0x000000004020f2ec                d2i_OCSP_REVOKEDINFO
                0x000000004020f2ff                i2d_OCSP_REVOKEDINFO
                0x000000004020f312                OCSP_REVOKEDINFO_new
                0x000000004020f325                OCSP_REVOKEDINFO_free
                0x000000004020f338                d2i_OCSP_CERTSTATUS
                0x000000004020f34b                i2d_OCSP_CERTSTATUS
                0x000000004020f35e                OCSP_CERTSTATUS_new
                0x000000004020f371                OCSP_CERTSTATUS_free
                0x000000004020f384                d2i_OCSP_SINGLERESP
                0x000000004020f397                i2d_OCSP_SINGLERESP
                0x000000004020f3aa                OCSP_SINGLERESP_new
                0x000000004020f3bd                OCSP_SINGLERESP_free
                0x000000004020f3d0                d2i_OCSP_RESPDATA
                0x000000004020f3e3                i2d_OCSP_RESPDATA
                0x000000004020f3f6                OCSP_RESPDATA_new
                0x000000004020f409                OCSP_RESPDATA_free
                0x000000004020f41c                d2i_OCSP_BASICRESP
                0x000000004020f42f                i2d_OCSP_BASICRESP
                0x000000004020f442                OCSP_BASICRESP_new
                0x000000004020f455                OCSP_BASICRESP_free
                0x000000004020f468                d2i_OCSP_CRLID
                0x000000004020f47b                i2d_OCSP_CRLID
                0x000000004020f48e                OCSP_CRLID_new
                0x000000004020f4a1                OCSP_CRLID_free
                0x000000004020f4b4                d2i_OCSP_SERVICELOC
                0x000000004020f4c7                i2d_OCSP_SERVICELOC
                0x000000004020f4da                OCSP_SERVICELOC_new
                0x000000004020f4ed                OCSP_SERVICELOC_free
                0x000000004020f500                PKCS12_item_pack_safebag
                0x000000004020f5de                PKCS12_MAKE_KEYBAG
                0x000000004020f635                PKCS12_MAKE_SHKEYBAG
                0x000000004020f717                PKCS12_pack_p7data
                0x000000004020f7e3                PKCS12_unpack_p7data
                0x000000004020f82b                PKCS12_pack_p7encdata
                0x000000004020f9bf                PKCS12_unpack_p7encdata
                0x000000004020fa10                PKCS12_decrypt_skey
                0x000000004020fa22                PKCS12_pack_authsafes
                0x000000004020fa4c                PKCS12_unpack_authsafes
                0x000000004020fa9c                d2i_PKCS12
                0x000000004020faaf                i2d_PKCS12
                0x000000004020fac2                PKCS12_new
                0x000000004020fad5                PKCS12_free
                0x000000004020fae8                d2i_PKCS12_MAC_DATA
                0x000000004020fafb                i2d_PKCS12_MAC_DATA
                0x000000004020fb0e                PKCS12_MAC_DATA_new
                0x000000004020fb21                PKCS12_MAC_DATA_free
                0x000000004020fb34                d2i_PKCS12_BAGS
                0x000000004020fb47                i2d_PKCS12_BAGS
                0x000000004020fb5a                PKCS12_BAGS_new
                0x000000004020fb6d                PKCS12_BAGS_free
                0x000000004020fb80                d2i_PKCS12_SAFEBAG
                0x000000004020fb93                i2d_PKCS12_SAFEBAG
                0x000000004020fba6                PKCS12_SAFEBAG_new
                0x000000004020fbb9                PKCS12_SAFEBAG_free
                0x000000004020fbcc                PKCS12_pbe_crypt
                0x000000004020fd31                PKCS12_item_decrypt_d2i
                0x000000004020fe01                PKCS12_item_i2d_encrypt
                0x000000004020ff2f                PKCS8_decrypt
                0x000000004020ff54                PKCS8_encrypt
                0x0000000040210079                X509_policy_tree_level_count
                0x0000000040210088                X509_policy_tree_get0_level
                0x00000000402100b2                X509_policy_tree_get0_policies
                0x00000000402100c2                X509_policy_tree_get0_user_policies
                0x00000000402100dd                X509_policy_level_node_count
                0x0000000040210109                X509_policy_level_get0_node
                0x0000000040210137                X509_policy_node_get0_policy
                0x000000004021014a                X509_policy_node_get0_qualifiers
                0x000000004021015d                X509_policy_node_get0_parent
                0x000000004021018f                policy_node_cmp_new
                0x00000000402101a2                tree_find_sk
                0x00000000402101df                level_find_node
                0x0000000040210241                level_add_node
                0x0000000040210327                policy_node_free
                0x0000000040210335                policy_node_match
                0x00000000402106af                UI_free
                0x00000000402106e1                UI_add_input_string
                0x0000000040210711                UI_dup_input_string
                0x00000000402107a0                UI_add_verify_string
                0x00000000402107d1                UI_dup_verify_string
                0x0000000040210861                UI_add_input_boolean
                0x000000004021088b                UI_dup_input_boolean
                0x0000000040210a13                UI_add_info_string
                0x0000000040210a4f                UI_dup_info_string
                0x0000000040210ad1                UI_add_error_string
                0x0000000040210b0d                UI_dup_error_string
                0x0000000040210b8f                UI_construct_prompt
                0x0000000040210cb7                UI_add_user_data
                0x0000000040210cc0                UI_get0_user_data
                0x0000000040210cc5                UI_process
                0x0000000040210dde                UI_ctrl
                0x0000000040210e68                UI_get_ex_new_index
                0x0000000040210e8a                UI_set_ex_data
                0x0000000040210e9c                UI_get_ex_data
                0x0000000040210eae                UI_set_default_method
                0x0000000040210eb6                UI_get_default_method
                0x0000000040210ee4                UI_new_method
                0x0000000040210f73                UI_new
                0x0000000040210f86                UI_get_method
                0x0000000040210f8a                UI_set_method
                0x0000000040210f91                UI_create_method
                0x0000000040210fdd                UI_destroy_method
                0x0000000040210ffa                UI_method_set_opener
                0x000000004021100f                UI_method_set_writer
                0x0000000040211024                UI_method_set_flusher
                0x0000000040211039                UI_method_set_reader
                0x000000004021104e                UI_method_set_closer
                0x0000000040211063                UI_method_set_prompt_constructor
                0x0000000040211078                UI_method_get_opener
                0x0000000040211088                UI_method_get_writer
                0x0000000040211098                UI_method_get_flusher
                0x00000000402110a8                UI_method_get_reader
                0x00000000402110b8                UI_method_get_closer
                0x00000000402110c8                UI_method_get_prompt_constructor
                0x00000000402110d8                UI_get_string_type
                0x00000000402110e6                UI_get_input_flags
                0x00000000402110f5                UI_get0_output_string
                0x0000000040211105                UI_get0_action_string
                0x0000000040211127                UI_get0_result_string
                0x0000000040211147                UI_get0_result
                0x00000000402111c9                UI_get0_test_string
                0x00000000402111e4                UI_get_result_minsize
                0x0000000040211203                UI_get_result_maxsize
                0x0000000040211222                UI_set_result
                0x00000000402116d2                UI_OpenSSL
                0x0000000040211a79                i2v_ASN1_BIT_STRING
                0x0000000040211aca                v2i_ASN1_BIT_STRING
                0x0000000040211c40                i2s_ASN1_ENUMERATED_TABLE
                0x0000000040211dfd                d2i_EXTENDED_KEY_USAGE
                0x0000000040211e10                i2d_EXTENDED_KEY_USAGE
                0x0000000040211e23                EXTENDED_KEY_USAGE_new
                0x0000000040211e36                EXTENDED_KEY_USAGE_free
                0x000000004021209d                _CONF_get_section
                0x00000000402120d4                _CONF_get_section_values
                0x00000000402120f2                _CONF_add_string
                0x000000004021215e                _CONF_get_string
                0x00000000402121f1                _CONF_new_data
                0x000000004021222b                _CONF_free_data
                0x000000004021226f                _CONF_new_section
                0x00000000402131dd                NCONF_default
                0x00000000402131e3                NCONF_WIN32
                0x00000000402131e9                codeend = .

.iplt           0x00000000402131f0        0x0 load address 0x00000000002131f0
 .iplt          0x0000000000000000        0x0 output.o

.rodata         0x0000000040213200    0x3468b load address 0x0000000000213200
 .rodata        0x0000000040213200    0x3468b output.o
                0x000000004021e880                tcp_pcb_lists
                0x000000004021e8a0                tcp_persist_backoff
                0x000000004021e8a7                tcp_backoff
                0x000000004021e8c0                tcp_state_str
                0x000000004021e980                ip_addr_broadcast
                0x000000004021e984                ip_addr_any
                0x000000004021e988                ethzero
                0x000000004021e98e                ethbroadcast
                0x0000000040220c20                BN_version
                0x0000000040220e40                lh_version
                0x0000000040220e80                RSA_version
                0x0000000040220ec0                SHA1_version
                0x0000000040221000                SHA256_version
                0x00000000402212c0                SHA512_version
                0x0000000040221300                STACK_version
                0x0000000040221360                X509_CRL_it
                0x0000000040221460                X509_CRL_INFO_it
                0x0000000040221600                X509_REVOKED_it
                0x00000000402216c0                X509_EXTENSIONS_it
                0x0000000040221740                X509_EXTENSION_it
                0x0000000040221800                X509_NAME_it
                0x0000000040221840                x509_name_ff
                0x0000000040221880                X509_NAME_INTERNAL_it
                0x0000000040221900                X509_NAME_ENTRIES_it
                0x0000000040221980                X509_NAME_ENTRY_it
                0x0000000040221a20                X509_PUBKEY_it
                0x0000000040221b00                X509_REQ_it
                0x0000000040221c00                X509_REQ_INFO_it
                0x0000000040221d20                X509_SIG_it
                0x0000000040221dc0                NETSCAPE_SPKI_it
                0x0000000040221e80                NETSCAPE_SPKAC_it
                0x0000000040221f20                X509_it
                0x0000000040222020                X509_CINF_it
                0x0000000040222240                X509_CERT_PAIR_it
                0x00000000402222e0                X509_CERT_AUX_it
                0x0000000040222500                ASN1_TIME_it
                0x0000000040222580                ASN1_version
                0x0000000040223760                DSAPublicKey_it
                0x0000000040223840                dsa_pub_internal_it
                0x0000000040223920                DSAparams_it
                0x0000000040223a20                DSAPrivateKey_it
                0x0000000040223ba0                DSA_SIG_it
                0x0000000040223c80                DSA_version
                0x0000000040225160                EC_PRIVATEKEY_it
                0x0000000040225240                ECPKPARAMETERS_it
                0x0000000040225300                ECPARAMETERS_it
                0x0000000040225440                X9_62_CURVE_it
                0x0000000040225500                X9_62_FIELDID_it
                0x0000000040225680                X9_62_CHARACTERISTIC_TWO_it
                0x0000000040225860                X9_62_PENTANOMIAL_it
                0x00000000402292a0                OSSL_DES_version
                0x00000000402292e0                OSSL_libdes_version
                0x0000000040229720                EVP_version
                0x00000000402297e0                IDEA_version
                0x0000000040229e20                MD4_version
                0x0000000040229e60                MD5_version
                0x0000000040229ea0                RAND_version
                0x0000000040236a20                PBKDF2PARAM_it
                0x0000000040236b00                PBE2PARAM_it
                0x0000000040236ba0                PKCS8_PRIV_KEY_INFO_it
                0x0000000040236cc0                PKCS7_ATTR_VERIFY_it
                0x0000000040236d40                PKCS7_ATTR_SIGN_it
                0x0000000040236dc0                PKCS7_DIGEST_it
                0x0000000040236ea0                PKCS7_ENCRYPT_it
                0x0000000040236f40                PKCS7_SIGN_ENVELOPE_it
                0x00000000402370a0                PKCS7_ENC_CONTENT_it
                0x0000000040237160                PKCS7_RECIP_INFO_it
                0x0000000040237280                PKCS7_ENVELOPE_it
                0x0000000040237340                PKCS7_ISSUER_AND_SERIAL_it
                0x00000000402373e0                PKCS7_SIGNER_INFO_it
                0x0000000040237580                PKCS7_SIGNED_it
                0x00000000402376c0                PKCS7_it
                0x0000000040237a40                RC2_version
                0x0000000040237b80                RC4_version
                0x0000000040237bc0                RMD160_version
                0x0000000040237c00                RSAPublicKey_it
                0x0000000040237ce0                RSAPrivateKey_it
                0x00000000402390a0                SHA_version
                0x0000000040239360                ASN1_SET_ANY_it
                0x00000000402393e0                ASN1_SEQUENCE_ANY_it
                0x0000000040239460                ASN1_OCTET_STRING_NDEF_it
                0x00000000402394a0                ASN1_FBOOLEAN_it
                0x00000000402394e0                ASN1_TBOOLEAN_it
                0x0000000040239520                ASN1_BOOLEAN_it
                0x0000000040239560                DIRECTORYSTRING_it
                0x00000000402395a0                DISPLAYTEXT_it
                0x00000000402395e0                ASN1_PRINTABLE_it
                0x0000000040239620                ASN1_SEQUENCE_it
                0x0000000040239660                ASN1_ANY_it
                0x00000000402396a0                ASN1_BMPSTRING_it
                0x00000000402396e0                ASN1_UNIVERSALSTRING_it
                0x0000000040239720                ASN1_VISIBLESTRING_it
                0x0000000040239760                ASN1_GENERALIZEDTIME_it
                0x00000000402397a0                ASN1_UTCTIME_it
                0x00000000402397e0                ASN1_GENERALSTRING_it
                0x0000000040239820                ASN1_IA5STRING_it
                0x0000000040239860                ASN1_T61STRING_it
                0x00000000402398a0                ASN1_PRINTABLESTRING_it
                0x00000000402398e0                ASN1_UTF8STRING_it
                0x0000000040239920                ASN1_OBJECT_it
                0x0000000040239960                ASN1_NULL_it
                0x00000000402399a0                ASN1_OCTET_STRING_it
                0x00000000402399e0                ASN1_BIT_STRING_it
                0x0000000040239a20                ASN1_ENUMERATED_it
                0x0000000040239a60                ASN1_INTEGER_it
                0x0000000040239aa0                AUTHORITY_KEYID_it
                0x0000000040239b60                NOTICEREF_it
                0x0000000040239c00                USERNOTICE_it
                0x0000000040239ca0                POLICYQUALINFO_it
                0x0000000040239e20                POLICYINFO_it
                0x0000000040239ec0                CERTIFICATEPOLICIES_it
                0x0000000040239f40                v3_cpols
                0x0000000040239fc0                v3_idp
                0x000000004023a040                ISSUING_DIST_POINT_it
                0x000000004023a180                CRL_DIST_POINTS_it
                0x000000004023a200                DIST_POINT_it
                0x000000004023a2c0                DIST_POINT_NAME_it
                0x000000004023a4a0                v3_freshest_crl
                0x000000004023a520                v3_crld
                0x000000004023a680                GENERAL_NAMES_it
                0x000000004023a700                GENERAL_NAME_it
                0x000000004023a8c0                EDIPARTYNAME_it
                0x000000004023a960                OTHERNAME_it
                0x000000004023aa00                NAME_CONSTRAINTS_it
                0x000000004023aaa0                GENERAL_SUBTREE_it
                0x000000004023ab60                v3_name_constraints
                0x000000004023abe0                POLICY_CONSTRAINTS_it
                0x000000004023ac80                v3_policy_constraints
                0x000000004023ad00                POLICY_MAPPINGS_it
                0x000000004023ad80                POLICY_MAPPING_it
                0x000000004023ae20                v3_policy_mappings
                0x000000004023af00                X509_version
                0x000000004023b060                X509_ALGORS_it
                0x000000004023b0e0                X509_ALGOR_it
                0x000000004023b180                X509_ATTRIBUTE_it
                0x000000004023b220                X509_ATTRIBUTE_SET_it
                0x000000004023b2c0                CBIGNUM_it
                0x000000004023b300                BIGNUM_it
                0x000000004023b340                ZLONG_it
                0x000000004023b380                LONG_it
                0x000000004023b3c0                X509_VAL_it
                0x000000004023b8e0                rsa_pkey_meth
                0x000000004023b9c0                dh_pkey_meth
                0x000000004023baa0                dsa_pkey_meth
                0x000000004023bb80                ec_pkey_meth
                0x000000004023bc60                hmac_pkey_meth
                0x000000004023bd80                rsa_asn1_meths
                0x000000004023bf00                dh_asn1_meth
                0x000000004023bfc0                dsa_asn1_meths
                0x000000004023c360                eckey_asn1_meth
                0x000000004023c420                hmac_asn1_meth
                0x000000004023d560                CMS_Receipt_it
                0x000000004023d640                CMS_ReceiptRequest_it
                0x000000004023d700                CMS_ReceiptsFrom_it
                0x000000004023d7a0                CMS_Attributes_Verify_it
                0x000000004023d820                CMS_Attributes_Sign_it
                0x000000004023d8a0                CMS_ContentInfo_it
                0x000000004023db60                CMS_CompressedData_it
                0x000000004023dc20                CMS_AuthenticatedData_it
                0x000000004023dde0                CMS_EncryptedData_it
                0x000000004023dea0                CMS_DigestedData_it
                0x000000004023df80                CMS_EnvelopedData_it
                0x000000004023e0a0                CMS_RecipientInfo_it
                0x000000004023e200                CMS_OtherRecipientInfo_it
                0x000000004023e2a0                CMS_PasswordRecipientInfo_it
                0x000000004023e380                CMS_KEKRecipientInfo_it
                0x000000004023e460                CMS_KEKIdentifier_it
                0x000000004023e520                CMS_KeyAgreeRecipientInfo_it
                0x000000004023e640                CMS_OriginatorIdentifierOrKey_it
                0x000000004023e700                CMS_OriginatorPublicKey_it
                0x000000004023e7a0                CMS_RecipientEncryptedKey_it
                0x000000004023e840                CMS_KeyAgreeRecipientIdentifier_it
                0x000000004023e8e0                CMS_RecipientKeyIdentifier_it
                0x000000004023e9a0                CMS_OtherKeyAttribute_it
                0x000000004023ea40                CMS_KeyTransRecipientInfo_it
                0x000000004023eb20                CMS_EncryptedContentInfo_it
                0x000000004023ebe0                CMS_OriginatorInfo_it
                0x000000004023ec80                CMS_SignedData_it
                0x000000004023edc0                CMS_RevocationInfoChoice_it
                0x000000004023ee60                CMS_OtherRevocationInfoFormat_it
                0x000000004023ef00                CMS_SignerInfo_it
                0x000000004023f0a0                CMS_EncapsulatedContentInfo_it
                0x000000004023f140                CMS_SignerIdentifier_it
                0x000000004023f1e0                CMS_CertificateChoices_it
                0x000000004023f300                CMS_OtherCertificateFormat_it
                0x000000004023f3a0                CMS_IssuerAndSerialNumber_it
                0x000000004023f820                BF_version
                0x0000000040240f60                CAST_version
                0x0000000040241020                CAST_S_table7
                0x0000000040241420                CAST_S_table6
                0x0000000040241820                CAST_S_table5
                0x0000000040241c20                CAST_S_table4
                0x0000000040242020                CAST_S_table3
                0x0000000040242420                CAST_S_table2
                0x0000000040242820                CAST_S_table1
                0x0000000040242c20                CAST_S_table0
                0x0000000040243380                DES_SPtrans
                0x0000000040244380                DHparams_it
                0x0000000040244480                DH_version
                0x0000000040244600                ECDH_version
                0x0000000040244640                ECDSA_version
                0x0000000040244940                PBEPARAM_it
                0x0000000040244a40                PEM_version
                0x0000000040244b60                v3_alt
                0x0000000040244ca0                BASIC_CONSTRAINTS_it
                0x0000000040244d40                v3_bcons
                0x0000000040244dc0                AUTHORITY_INFO_ACCESS_it
                0x0000000040244e40                ACCESS_DESCRIPTION_it
                0x0000000040244ee0                v3_sinfo
                0x0000000040244f60                v3_info
                0x0000000040244fe0                v3_ocsp_serviceloc
                0x0000000040245060                v3_ocsp_nocheck
                0x00000000402450e0                v3_ocsp_nonce
                0x0000000040245160                v3_crl_hold
                0x00000000402451e0                v3_crl_invdate
                0x0000000040245260                v3_ocsp_acutoff
                0x00000000402452e0                v3_ocsp_crlid
                0x0000000040245360                v3_pci
                0x00000000402453e0                PROXY_CERT_INFO_EXTENSION_it
                0x0000000040245480                PROXY_POLICY_it
                0x0000000040245520                PKEY_USAGE_PERIOD_it
                0x00000000402455c0                v3_pkey_usage_period
                0x0000000040245640                v3_skey_id
                0x00000000402456c0                SXNET_it
                0x0000000040245760                SXNETID_it
                0x0000000040245800                v3_sxnet
                0x0000000040245d20                CONF_version
                0x0000000040245d60                ECDSA_SIG_it
                0x0000000040245e00                OCSP_SERVICELOC_it
                0x0000000040245ea0                OCSP_CRLID_it
                0x0000000040245f60                OCSP_BASICRESP_it
                0x0000000040246040                OCSP_RESPDATA_it
                0x0000000040246160                OCSP_SINGLERESP_it
                0x0000000040246280                OCSP_CERTSTATUS_it
                0x0000000040246340                OCSP_REVOKEDINFO_it
                0x00000000402463e0                OCSP_RESPID_it
                0x0000000040246480                OCSP_RESPONSE_it
                0x0000000040246520                OCSP_RESPBYTES_it
                0x00000000402465c0                OCSP_REQUEST_it
                0x0000000040246660                OCSP_REQINFO_it
                0x0000000040246740                OCSP_ONEREQ_it
                0x00000000402467e0                OCSP_CERTID_it
                0x00000000402468c0                OCSP_SIGNATURE_it
                0x0000000040246980                PKCS12_AUTHSAFES_it
                0x0000000040246a00                PKCS12_SAFEBAGS_it
                0x0000000040246a80                PKCS12_SAFEBAG_it
                0x0000000040246ce0                PKCS12_BAGS_it
                0x0000000040246ea0                PKCS12_MAC_DATA_it
                0x0000000040246f60                PKCS12_it
                0x0000000040247020                v3_akey_id
                0x00000000402470a0                v3_key_usage
                0x0000000040247120                v3_nscert
                0x00000000402471a0                v3_crl_reason
                0x0000000040247220                EXTENDED_KEY_USAGE_it
                0x00000000402472a0                v3_ocsp_accresp
                0x0000000040247320                v3_ext_ku
                0x00000000402473a0                v3_ns_ia5_list
                0x00000000402476e0                v3_inhibit_anyp
                0x0000000040247760                v3_delta_crl
                0x00000000402477e0                v3_crl_num
                0x0000000040247860                CONF_def_version

.rodata.str1.8  0x0000000040247890     0xb4f0 load address 0x0000000000247890
 .rodata.str1.8
                0x0000000040247890     0xb4f0 output.o
                                       0xbabd (size before relaxing)

.rodata.str1.1  0x0000000040252d80    0x13952 load address 0x0000000000252d80
 .rodata.str1.1
                0x0000000040252d80    0x13952 output.o
                                      0x15b44 (size before relaxing)

.eh_frame       0x00000000402666d8    0x32928 load address 0x00000000002666d8
 .eh_frame      0x00000000402666d8    0x32928 output.o
                                      0x33cd8 (size before relaxing)

.rela.dyn       0x0000000040299000        0x0 load address 0x0000000000299000
 .rela.iplt     0x0000000000000000        0x0 output.o
 .rela.text     0x0000000000000000        0x0 output.o
 .rela.entry.text
                0x0000000000000000        0x0 output.o
 .rela.rodata   0x0000000000000000        0x0 output.o

.data           0x0000000040299000   0x698930 load address 0x0000000000299000
                0x0000000040299000                data = .
 *(.data)
 .data          0x0000000040299000   0x697cd7 output.o
                0x0000000040299010                uefi_memory_map_size
                0x0000000040299040                config
                0x00000000402a9a50                vmm_start_phys
                0x00000000402a9a54                use_pae
                0x00000000402a9c70                savemsr_index
                0x00000000402a9f60                mapInt
                0x0000000040362000                calluefi
                0x0000000040362216                calluefi_uefi_gdtr
                0x0000000040362226                calluefi_uefi_idtr
                0x0000000040362236                calluefi_uefi_ldtr
                0x000000004036223e                calluefi_uefi_sregs
                0x000000004036224e                calluefi_uefi_cr3
                0x0000000040362256                guest_int0x15_hook
                0x0000000040362273                guest_int0x15_e801_fake_ax
                0x0000000040362276                guest_int0x15_e801_fake_bx
                0x0000000040362287                guest_int0x15_orig
                0x000000004036229c                guest_int0x15_e820_data_minus0x18
                0x00000000403622a4                guest_int0x15_e820_end
                0x00000000403622ca                guest_int0x15_hook_end
                0x00000000403632ce                wakeup_entry_start
                0x00000000403632d7                wakeup_entry_addr
                0x00000000403632fd                wakeup_entry_cr4
                0x0000000040363306                wakeup_entry_cr3
                0x000000004036330f                wakeup_entry_cr0
                0x000000004036331e                wakeup_entry_gdtr
                0x0000000040363328                wakeup_entry_end
                0x00000000403635a0                ata_bm_handler_table
                0x0000000040363600                ata_ctlblk_handler_table
                0x0000000040363620                ata_cmdblk_handler_table
                0x0000000040364150                usb_log_level
                0x0000000040364850                hSessionCnt
                0x0000000040364858                hObjectCnt
                0x0000000040365040                g_rgSCardT1Pci
                0x0000000040365050                g_rgSCardT0Pci
                0x0000000040365060                FI
                0x00000000403650a0                DI
                0x000000004036c560                rand_ssleay_meth
                0x000000004036c940                default_pctx
                0x0000000040930cd8                . = ALIGN (0x8)
 *fill*         0x0000000040930cd7        0x1 
                0x0000000040930cd8                __initfunc_start = .
 *(.initfunc)
 .initfunc      0x0000000040930cd8      0xa98 output.o
                0x0000000040930cd8                __initfunc_acpi_init_paral
                0x0000000040930cf0                __initfunc_acpi_init_global
                0x0000000040930d08                __initfunc_beep_init_msg
                0x0000000040930d20                __initfunc_cache_init_pass
                0x0000000040930d38                __initfunc_cache_init_vcpu
                0x0000000040930d50                __initfunc_update_mtrr_and_pat
                0x0000000040930d68                __initfunc_cache_init_pcpu
                0x0000000040930d80                __initfunc_callrealmode_panic
                0x0000000040930d98                __initfunc_callrealmode_init_global
                0x0000000040930db0                __initfunc_cpu_mmu_spt_init_pcpu
                0x0000000040930dc8                __initfunc_cpu_mmu_spt_init_global
                0x0000000040930de0                __initfunc_cpuid_init
                0x0000000040930df8                __initfunc_cpuid_pass_init
                0x0000000040930e10                __initfunc_exint_pass_init
                0x0000000040930e28                __initfunc_gmm_pass_init
                0x0000000040930e40                __initfunc_install_int0x15_hook
                0x0000000040930e58                __initfunc_idman_init
                0x0000000040930e70                __initfunc_idman_init_global
                0x0000000040930e88                __initfunc_int_wakeup
                0x0000000040930ea0                __initfunc_int_init_global
                0x0000000040930eb8                __initfunc_io_io_init
                0x0000000040930ed0                __initfunc_setiohooks
                0x0000000040930ee8                __initfunc_io_iopass_init
                0x0000000040930f00                __initfunc_keyboard_init_msg
                0x0000000040930f18                __initfunc_localapic_init2
                0x0000000040930f30                __initfunc_localapic_init
                0x0000000040930f48                __initfunc_get_shiftflags
                0x0000000040930f60                __initfunc_copy_minios
                0x0000000040930f78                __initfunc_print_boot_msg
                0x0000000040930f90                __initfunc_debug_on_shift_key
                0x0000000040930fa8                __initfunc_wait_for_create_pass_vm
                0x0000000040930fc0                __initfunc_create_pass_vm
                0x0000000040930fd8                __initfunc_virtualization_init_pcpu
                0x0000000040930ff0                __initfunc_unmap_user_area
                0x0000000040931008                __initfunc_mm_init_global
                0x0000000040931020                __initfunc_mmio_debug
                0x0000000040931038                __initfunc_mmio_init
                0x0000000040931050                __initfunc_msg_init_global
                0x0000000040931068                __initfunc_msr_init
                0x0000000040931080                __initfunc_msr_pass_init
                0x0000000040931098                __initfunc_nmi_pass_init_pcpu
                0x00000000409310b0                __initfunc_nmi_pass_init
                0x00000000409310c8                __initfunc_panic_init_pcpu
                0x00000000409310e0                __initfunc_panic_init_msg
                0x00000000409310f8                __initfunc_panic_init_global3
                0x0000000040931110                __initfunc_panic_init_global
                0x0000000040931128                __initfunc_printf_init_global
                0x0000000040931140                __initfunc_process_wakeup
                0x0000000040931158                __initfunc_process_init_ap
                0x0000000040931170                __initfunc_process_init_global
                0x0000000040931188                __initfunc_random_init_config0
                0x00000000409311a0                __initfunc_random_init_global
                0x00000000409311b8                __initfunc_reboot_init_msg
                0x00000000409311d0                __initfunc_segment_init_global
                0x00000000409311e8                __initfunc_serial_init_msg
                0x0000000040931200                __initfunc_sleep_init_msg
                0x0000000040931218                __initfunc_sleep_init_global
                0x0000000040931230                __initfunc_svm_panic
                0x0000000040931248                __initfunc_sx_init_pass_init
                0x0000000040931260                __initfunc_thread_init_pcpu
                0x0000000040931278                __initfunc_thread_init_global
                0x0000000040931290                __initfunc_time_wakeup
                0x00000000409312a8                __initfunc_time_init_msg
                0x00000000409312c0                __initfunc_time_init_dbsp
                0x00000000409312d8                __initfunc_time_init_pcpu
                0x00000000409312f0                __initfunc_time_init_global_status
                0x0000000040931308                __initfunc_time_init_global
                0x0000000040931320                __initfunc_timer_init_global
                0x0000000040931338                __initfunc_tty_init_msg
                0x0000000040931350                __initfunc_tty_init_global2
                0x0000000040931368                __initfunc_tty_init_global
                0x0000000040931380                __initfunc_vcpu_init_global
                0x0000000040931398                __initfunc_vga_init
                0x00000000409313b0                __initfunc_vmmcall_init
                0x00000000409313c8                __initfunc_vmmcall_boot_init
                0x00000000409313e0                __initfunc_vmmcall_dbgsh_init_global
                0x00000000409313f8                __initfunc_vmmcall_dbgsh_init
                0x0000000040931410                __initfunc_vmmcall_iccard_init
                0x0000000040931428                __initfunc_vmmcall_log_init
                0x0000000040931440                __initfunc_vmmcall_status_init
                0x0000000040931458                __initfunc_vmmcall_status_init_global
                0x0000000040931470                __initfunc_vramwrite_init_bsp
                0x0000000040931488                __initfunc_vramwrite_init_msg
                0x00000000409314a0                __initfunc_vt_register_status_callback
                0x00000000409314b8                __initfunc_vt_panic
                0x00000000409314d0                __initfunc_xsetbv_init
                0x00000000409314e8                __initfunc_xsetbv_pass_init
                0x0000000040931500                __initfunc_core_init
                0x0000000040931518                __initfunc_ieee1394_init
                0x0000000040931530                __initfunc_iommu_setup
                0x0000000040931548                __initfunc_pci_conceal_init
                0x0000000040931560                __initfunc_pci_init
                0x0000000040931578                __initfunc_pci_match_compat_init
                0x0000000040931590                __initfunc_ieee1394_thunderbolt_conceal
                0x00000000409315a8                __initfunc_ieee1394_hint
                0x00000000409315c0                __initfunc_ieee1394log_init
                0x00000000409315d8                __initfunc_x540_init
                0x00000000409315f0                __initfunc_pci_monitor_init_msg
                0x0000000040931608                __initfunc_pci_monitor_init
                0x0000000040931620                __initfunc_ata_init
                0x0000000040931638                __initfunc_uhci_init
                0x0000000040931650                __initfunc_ehci_init
                0x0000000040931668                __initfunc_xhci_init
                0x0000000040931680                __initfunc_pro100_init
                0x0000000040931698                __initfunc_resume_pro1000
                0x00000000409316b0                __initfunc_vpn_pro1000_init
                0x00000000409316c8                __initfunc_bnx_init
                0x00000000409316e0                __initfunc_storage_kernel_init
                0x00000000409316f8                __initfunc_storage_io_initfunc
                0x0000000040931710                __initfunc_idman_kernel_init
                0x0000000040931728                __initfunc_netapi_init
                0x0000000040931740                __initfunc_net_main_init
                0x0000000040931758                __initfunc_echoctl_init_msg
                0x0000000040931770                __initfunc_end = .
                0x0000000040931770                __process_builtin = .
 *(.processes)
 .processes     0x0000000040931770      0x1c0 output.o
                0x0000000040931930                __process_builtin_end = .
                0x0000000040931930                dataend = .

.igot.plt       0x0000000040931930        0x0 load address 0x0000000000931930
 .igot.plt      0x0000000000000000        0x0 output.o

.bss            0x0000000040932000  0x4d46000 load address 0x0000000000932000
                0x0000000040932000                bss = .
 *(.bss)
 .bss           0x0000000040932000   0x2b59a0 output.o
                0x00000000409320f0                uefi_memory_map_descsize
                0x0000000040936000                vmmsize
                0x0000000040936008                memorysize
                0x0000000040a7fa80                pcpu_default
                0x0000000040a9f868                ps2_locked
                0x0000000040ac1900                handler_descriptor
                0x0000000040ac1b08                drhd_list_head
                0x0000000040ac3340                pci_driver_list_head
                0x0000000040ac3348                pci_device_list_head
                0x0000000040ac3cc0                uhci_monitor_boost_hc
                0x0000000040ac3e50                usb_hc_list_head
                0x0000000040ac3e58                usb_busses_head
                0x0000000040be1950                hContext
                0x0000000040be1958                sessionTable
                0x0000000040be1960                slotTable
                0x0000000040be1968                slotFlag
                0x0000000040be1969                libInitFlag
                0x0000000040be64b8                OPENSSL_NONPIC_relocated
                0x0000000040be64c0                OPENSSL_ia32cap_P
                0x0000000040be70d8                cleanse_ctr
                0x0000000040be71f0                chelp_inited
                0x0000000040be76d8                obj_cleanup_defer
                0x0000000040be76e8                _shadow_DES_check_key
                0x0000000040be7700                app_pkey_methods
 *(COMMON)
 COMMON         0x0000000040be79a0  0x4a8ff50 output.o
                0x0000000040be79a0                clflush_size
                0x0000000040be79c0                sReaderContext
                0x0000000040be7a20                uefi_memory_map_data
                0x0000000040beba20                current_iphdr_src
                0x0000000040beba28                lbrbuf
                0x0000000040beba30                uefi_booted
                0x0000000040beba38                start_lbrpmu
                0x0000000040beba40                sigx_app
                0x0000000040beba48                tcp_tw_pcbs
                0x0000000040beba50                tcp_ticks
                0x0000000040beba54                num_dom
                0x0000000040beba58                lbrbuf_idx
                0x0000000040beba60                mszReaders
                0x0000000040bebe60                udp_pcbs
                0x0000000040bebe80                arr
                0x0000000044676dc8                prohibit_iccard_init
                0x0000000044676dd0                tcp_tmp_pcb
                0x0000000044676dd8                tcp_listen_pcbs
                0x0000000044676de0                pci_config_mmio_data_head
                0x0000000044676de8                netif_default
                0x0000000044676df0                tcp_active_pcbs
                0x0000000044676df8                curthread
                0x0000000044676e00                current_netif
                0x0000000044676e08                tcp_bound_pcbs
                0x0000000044676e20                ram_heap
                0x0000000045676e40                sig_app
                0x0000000045676e60                readerState
                0x0000000045676ee0                dom_io
                0x00000000456776e0                acpi_dsdt_system_state
                0x0000000045677700                current_header
                0x0000000045677708                ehci_host
                0x0000000045677710                lbrbuf_maxidx
                0x0000000045677718                tcp_active_pcbs_changed
                0x0000000045677720                tcp_input_pcb
                0x0000000045677728                num_of_processors
                0x0000000045677730                lbrbufsize
                0x0000000045677738                pbuf_free_ooseq_pending
                0x000000004567773a                e801_fake_bx
                0x0000000045677740                dhcp_rx_options_val
                0x0000000045677768                dhcp_rx_options_given
                0x0000000045677772                iommu_detected
                0x0000000045677778                uefi_mmio_space
                0x0000000045677780                dwReaders
                0x0000000045677788                current_iphdr_dest
                0x00000000456777a0                readerTracker
                0x00000000456778e0                handler_descriptor_lock
                0x00000000456778e2                e801_fake_ax
                0x00000000456778e8                netif_list
                0x0000000045678000                . = ALIGN (0x1000)
 *fill*         0x00000000456778f0      0x710 
                0x0000000045678000                end = .

/DISCARD/
 *(.gomi)
LOAD output.o
OUTPUT(bitvisor.elf elf64-x86-64)

.comment        0x0000000000000000       0x2b
 .comment       0x0000000000000000       0x2b output.o
                                       0x6300 (size before relaxing)

.note.GNU-stack
                0x0000000000000000        0x0
 .note.GNU-stack
                0x0000000000000000        0x0 output.o

.debug_aranges  0x0000000000000000     0x6e00
 .debug_aranges
                0x0000000000000000     0x6e00 output.o

.debug_info     0x0000000000000000   0x36182c
 .debug_info    0x0000000000000000   0x36182c output.o

.debug_abbrev   0x0000000000000000    0x5a7b9
 .debug_abbrev  0x0000000000000000    0x5a7b9 output.o

.debug_line     0x0000000000000000    0x51898
 .debug_line    0x0000000000000000    0x51898 output.o

.debug_str      0x0000000000000000    0x37d87
 .debug_str     0x0000000000000000    0x37d87 output.o
                                     0x15d009 (size before relaxing)

.debug_loc      0x0000000000000000   0x2650ef
 .debug_loc     0x0000000000000000   0x2650ef output.o

.debug_ranges   0x0000000000000000     0x6e00
 .debug_ranges  0x0000000000000000     0x6e00 output.o

Cross Reference Table

Symbol                                            File
ACCESS_DESCRIPTION_free                           output.o
ACCESS_DESCRIPTION_it                             output.o
ACCESS_DESCRIPTION_new                            output.o
AES_cbc_encrypt                                   output.o
AES_cfb128_encrypt                                output.o
AES_cfb1_encrypt                                  output.o
AES_cfb8_encrypt                                  output.o
AES_decrypt                                       output.o
AES_ecb_encrypt                                   output.o
AES_encrypt                                       output.o
AES_ofb128_encrypt                                output.o
AES_set_decrypt_key                               output.o
AES_set_encrypt_key                               output.o
AES_unwrap_key                                    output.o
AES_wrap_key                                      output.o
ASN1_ANY_it                                       output.o
ASN1_BIT_STRING_check                             output.o
ASN1_BIT_STRING_free                              output.o
ASN1_BIT_STRING_get_bit                           output.o
ASN1_BIT_STRING_it                                output.o
ASN1_BIT_STRING_new                               output.o
ASN1_BIT_STRING_set                               output.o
ASN1_BIT_STRING_set_bit                           output.o
ASN1_BMPSTRING_free                               output.o
ASN1_BMPSTRING_it                                 output.o
ASN1_BMPSTRING_new                                output.o
ASN1_BOOLEAN_it                                   output.o
ASN1_ENUMERATED_free                              output.o
ASN1_ENUMERATED_get                               output.o
ASN1_ENUMERATED_it                                output.o
ASN1_ENUMERATED_new                               output.o
ASN1_ENUMERATED_set                               output.o
ASN1_ENUMERATED_to_BN                             output.o
ASN1_FBOOLEAN_it                                  output.o
ASN1_GENERALIZEDTIME_adj                          output.o
ASN1_GENERALIZEDTIME_check                        output.o
ASN1_GENERALIZEDTIME_free                         output.o
ASN1_GENERALIZEDTIME_it                           output.o
ASN1_GENERALIZEDTIME_new                          output.o
ASN1_GENERALIZEDTIME_print                        output.o
ASN1_GENERALIZEDTIME_set                          output.o
ASN1_GENERALIZEDTIME_set_string                   output.o
ASN1_GENERALSTRING_free                           output.o
ASN1_GENERALSTRING_it                             output.o
ASN1_GENERALSTRING_new                            output.o
ASN1_IA5STRING_free                               output.o
ASN1_IA5STRING_it                                 output.o
ASN1_IA5STRING_new                                output.o
ASN1_INTEGER_cmp                                  output.o
ASN1_INTEGER_dup                                  output.o
ASN1_INTEGER_free                                 output.o
ASN1_INTEGER_get                                  output.o
ASN1_INTEGER_it                                   output.o
ASN1_INTEGER_new                                  output.o
ASN1_INTEGER_set                                  output.o
ASN1_INTEGER_to_BN                                output.o
ASN1_NULL_free                                    output.o
ASN1_NULL_it                                      output.o
ASN1_NULL_new                                     output.o
ASN1_OBJECT_create                                output.o
ASN1_OBJECT_free                                  output.o
ASN1_OBJECT_it                                    output.o
ASN1_OBJECT_new                                   output.o
ASN1_OCTET_STRING_NDEF_it                         output.o
ASN1_OCTET_STRING_cmp                             output.o
ASN1_OCTET_STRING_dup                             output.o
ASN1_OCTET_STRING_free                            output.o
ASN1_OCTET_STRING_it                              output.o
ASN1_OCTET_STRING_new                             output.o
ASN1_OCTET_STRING_set                             output.o
ASN1_PCTX_free                                    output.o
ASN1_PCTX_get_cert_flags                          output.o
ASN1_PCTX_get_flags                               output.o
ASN1_PCTX_get_nm_flags                            output.o
ASN1_PCTX_get_oid_flags                           output.o
ASN1_PCTX_get_str_flags                           output.o
ASN1_PCTX_new                                     output.o
ASN1_PCTX_set_cert_flags                          output.o
ASN1_PCTX_set_flags                               output.o
ASN1_PCTX_set_nm_flags                            output.o
ASN1_PCTX_set_oid_flags                           output.o
ASN1_PCTX_set_str_flags                           output.o
ASN1_PRINTABLESTRING_free                         output.o
ASN1_PRINTABLESTRING_it                           output.o
ASN1_PRINTABLESTRING_new                          output.o
ASN1_PRINTABLE_free                               output.o
ASN1_PRINTABLE_it                                 output.o
ASN1_PRINTABLE_new                                output.o
ASN1_PRINTABLE_type                               output.o
ASN1_SEQUENCE_ANY_it                              output.o
ASN1_SEQUENCE_it                                  output.o
ASN1_SET_ANY_it                                   output.o
ASN1_STRING_TABLE_add                             output.o
ASN1_STRING_TABLE_cleanup                         output.o
ASN1_STRING_TABLE_get                             output.o
ASN1_STRING_cmp                                   output.o
ASN1_STRING_copy                                  output.o
ASN1_STRING_data                                  output.o
ASN1_STRING_dup                                   output.o
ASN1_STRING_free                                  output.o
ASN1_STRING_get_default_mask                      output.o
ASN1_STRING_length                                output.o
ASN1_STRING_length_set                            output.o
ASN1_STRING_new                                   output.o
ASN1_STRING_print                                 output.o
ASN1_STRING_print_ex                              output.o
ASN1_STRING_set                                   output.o
ASN1_STRING_set0                                  output.o
ASN1_STRING_set_by_NID                            output.o
ASN1_STRING_set_default_mask                      output.o
ASN1_STRING_set_default_mask_asc                  output.o
ASN1_STRING_to_UTF8                               output.o
ASN1_STRING_type                                  output.o
ASN1_STRING_type_new                              output.o
ASN1_T61STRING_free                               output.o
ASN1_T61STRING_it                                 output.o
ASN1_T61STRING_new                                output.o
ASN1_TBOOLEAN_it                                  output.o
ASN1_TIME_adj                                     output.o
ASN1_TIME_check                                   output.o
ASN1_TIME_free                                    output.o
ASN1_TIME_it                                      output.o
ASN1_TIME_new                                     output.o
ASN1_TIME_print                                   output.o
ASN1_TIME_set                                     output.o
ASN1_TIME_set_string                              output.o
ASN1_TIME_to_generalizedtime                      output.o
ASN1_TYPE_cmp                                     output.o
ASN1_TYPE_free                                    output.o
ASN1_TYPE_get                                     output.o
ASN1_TYPE_get_int_octetstring                     output.o
ASN1_TYPE_get_octetstring                         output.o
ASN1_TYPE_new                                     output.o
ASN1_TYPE_set                                     output.o
ASN1_TYPE_set1                                    output.o
ASN1_TYPE_set_int_octetstring                     output.o
ASN1_TYPE_set_octetstring                         output.o
ASN1_UNIVERSALSTRING_free                         output.o
ASN1_UNIVERSALSTRING_it                           output.o
ASN1_UNIVERSALSTRING_new                          output.o
ASN1_UNIVERSALSTRING_to_string                    output.o
ASN1_UTCTIME_adj                                  output.o
ASN1_UTCTIME_check                                output.o
ASN1_UTCTIME_cmp_time_t                           output.o
ASN1_UTCTIME_free                                 output.o
ASN1_UTCTIME_it                                   output.o
ASN1_UTCTIME_new                                  output.o
ASN1_UTCTIME_print                                output.o
ASN1_UTCTIME_set                                  output.o
ASN1_UTCTIME_set_string                           output.o
ASN1_UTF8STRING_free                              output.o
ASN1_UTF8STRING_it                                output.o
ASN1_UTF8STRING_new                               output.o
ASN1_VISIBLESTRING_free                           output.o
ASN1_VISIBLESTRING_it                             output.o
ASN1_VISIBLESTRING_new                            output.o
ASN1_bn_print                                     output.o
ASN1_check_infinite_end                           output.o
ASN1_const_check_infinite_end                     output.o
ASN1_d2i_bio                                      output.o
ASN1_digest                                       output.o
ASN1_dup                                          output.o
ASN1_generate_nconf                               output.o
ASN1_generate_v3                                  output.o
ASN1_get_object                                   output.o
ASN1_i2d_bio                                      output.o
ASN1_item_d2i                                     output.o
ASN1_item_d2i_bio                                 output.o
ASN1_item_digest                                  output.o
ASN1_item_dup                                     output.o
ASN1_item_ex_d2i                                  output.o
ASN1_item_ex_free                                 output.o
ASN1_item_ex_i2d                                  output.o
ASN1_item_ex_new                                  output.o
ASN1_item_free                                    output.o
ASN1_item_i2d                                     output.o
ASN1_item_i2d_bio                                 output.o
ASN1_item_ndef_i2d                                output.o
ASN1_item_new                                     output.o
ASN1_item_pack                                    output.o
ASN1_item_print                                   output.o
ASN1_item_sign                                    output.o
ASN1_item_unpack                                  output.o
ASN1_item_verify                                  output.o
ASN1_mbstring_copy                                output.o
ASN1_mbstring_ncopy                               output.o
ASN1_object_size                                  output.o
ASN1_pack_string                                  output.o
ASN1_parse                                        output.o
ASN1_parse_dump                                   output.o
ASN1_primitive_free                               output.o
ASN1_primitive_new                                output.o
ASN1_put_eoc                                      output.o
ASN1_put_object                                   output.o
ASN1_seq_pack                                     output.o
ASN1_seq_unpack                                   output.o
ASN1_sign                                         output.o
ASN1_tag2bit                                      output.o
ASN1_tag2str                                      output.o
ASN1_template_d2i                                 output.o
ASN1_template_free                                output.o
ASN1_template_i2d                                 output.o
ASN1_template_new                                 output.o
ASN1_unpack_string                                output.o
ASN1_verify                                       output.o
ASN1_version                                      output.o
AUTHORITY_INFO_ACCESS_free                        output.o
AUTHORITY_INFO_ACCESS_it                          output.o
AUTHORITY_INFO_ACCESS_new                         output.o
AUTHORITY_KEYID_free                              output.o
AUTHORITY_KEYID_it                                output.o
AUTHORITY_KEYID_new                               output.o
AddCertDataByBuf                                  output.o
AddElem                                           output.o
AddIdPassDataByBuf                                output.o
AddObjTblByTlv                                    output.o
BASIC_CONSTRAINTS_free                            output.o
BASIC_CONSTRAINTS_it                              output.o
BASIC_CONSTRAINTS_new                             output.o
BF_cbc_encrypt                                    output.o
BF_cfb64_encrypt                                  output.o
BF_decrypt                                        output.o
BF_ecb_encrypt                                    output.o
BF_encrypt                                        output.o
BF_ofb64_encrypt                                  output.o
BF_options                                        output.o
BF_set_key                                        output.o
BF_version                                        output.o
BIGNUM_it                                         output.o
BIO_asn1_get_prefix                               output.o
BIO_asn1_get_suffix                               output.o
BIO_asn1_set_prefix                               output.o
BIO_asn1_set_suffix                               output.o
BIO_callback_ctrl                                 output.o
BIO_clear_flags                                   output.o
BIO_copy_next_retry                               output.o
BIO_ctrl                                          output.o
BIO_ctrl_pending                                  output.o
BIO_ctrl_wpending                                 output.o
BIO_dump                                          output.o
BIO_dump_cb                                       output.o
BIO_dump_indent                                   output.o
BIO_dump_indent_cb                                output.o
BIO_dup_chain                                     output.o
BIO_f_asn1                                        output.o
BIO_f_base64                                      output.o
BIO_f_buffer                                      output.o
BIO_f_cipher                                      output.o
BIO_f_md                                          output.o
BIO_find_type                                     output.o
BIO_free                                          output.o
BIO_free_all                                      output.o
BIO_get_callback                                  output.o
BIO_get_callback_arg                              output.o
BIO_get_ex_data                                   output.o
BIO_get_ex_new_index                              output.o
BIO_get_retry_BIO                                 output.o
BIO_get_retry_reason                              output.o
BIO_gets                                          output.o
BIO_indent                                        output.o
BIO_int_ctrl                                      output.o
BIO_method_name                                   output.o
BIO_method_type                                   output.o
BIO_new                                           output.o
BIO_new_CMS                                       output.o
BIO_new_NDEF                                      output.o
BIO_new_mem_buf                                   output.o
BIO_next                                          output.o
BIO_number_read                                   output.o
BIO_number_written                                output.o
BIO_pop                                           output.o
BIO_printf                                        output.o
BIO_ptr_ctrl                                      output.o
BIO_push                                          output.o
BIO_puts                                          output.o
BIO_read                                          output.o
BIO_s_mem                                         output.o
BIO_s_null                                        output.o
BIO_set                                           output.o
BIO_set_callback                                  output.o
BIO_set_callback_arg                              output.o
BIO_set_cipher                                    output.o
BIO_set_ex_data                                   output.o
BIO_set_flags                                     output.o
BIO_snprintf                                      output.o
BIO_test_flags                                    output.o
BIO_vfree                                         output.o
BIO_write                                         output.o
BN_BLINDING_convert                               output.o
BN_BLINDING_convert_ex                            output.o
BN_BLINDING_create_param                          output.o
BN_BLINDING_free                                  output.o
BN_BLINDING_get_flags                             output.o
BN_BLINDING_get_thread_id                         output.o
BN_BLINDING_invert                                output.o
BN_BLINDING_invert_ex                             output.o
BN_BLINDING_new                                   output.o
BN_BLINDING_set_flags                             output.o
BN_BLINDING_set_thread_id                         output.o
BN_BLINDING_thread_id                             output.o
BN_BLINDING_update                                output.o
BN_CTX_end                                        output.o
BN_CTX_free                                       output.o
BN_CTX_get                                        output.o
BN_CTX_init                                       output.o
BN_CTX_new                                        output.o
BN_CTX_start                                      output.o
BN_GENCB_call                                     output.o
BN_GF2m_add                                       output.o
BN_GF2m_arr2poly                                  output.o
BN_GF2m_mod                                       output.o
BN_GF2m_mod_arr                                   output.o
BN_GF2m_mod_div                                   output.o
BN_GF2m_mod_div_arr                               output.o
BN_GF2m_mod_exp                                   output.o
BN_GF2m_mod_exp_arr                               output.o
BN_GF2m_mod_inv                                   output.o
BN_GF2m_mod_inv_arr                               output.o
BN_GF2m_mod_mul                                   output.o
BN_GF2m_mod_mul_arr                               output.o
BN_GF2m_mod_solve_quad                            output.o
BN_GF2m_mod_solve_quad_arr                        output.o
BN_GF2m_mod_sqr                                   output.o
BN_GF2m_mod_sqr_arr                               output.o
BN_GF2m_mod_sqrt                                  output.o
BN_GF2m_mod_sqrt_arr                              output.o
BN_GF2m_poly2arr                                  output.o
BN_MONT_CTX_copy                                  output.o
BN_MONT_CTX_free                                  output.o
BN_MONT_CTX_init                                  output.o
BN_MONT_CTX_new                                   output.o
BN_MONT_CTX_set                                   output.o
BN_MONT_CTX_set_locked                            output.o
BN_RECP_CTX_free                                  output.o
BN_RECP_CTX_init                                  output.o
BN_RECP_CTX_new                                   output.o
BN_RECP_CTX_set                                   output.o
BN_add                                            output.o
BN_add_word                                       output.o
BN_asc2bn                                         output.o
BN_bin2bn                                         output.o
BN_bn2bin                                         output.o
BN_bn2dec                                         output.o
BN_bn2hex                                         output.o
BN_bntest_rand                                    output.o
BN_clear                                          output.o
BN_clear_bit                                      output.o
BN_clear_free                                     output.o
BN_cmp                                            output.o
BN_copy                                           output.o
BN_dec2bn                                         output.o
BN_div                                            output.o
BN_div_recp                                       output.o
BN_div_word                                       output.o
BN_dup                                            output.o
BN_exp                                            output.o
BN_free                                           output.o
BN_from_montgomery                                output.o
BN_gcd                                            output.o
BN_generate_prime_ex                              output.o
BN_get0_nist_prime_192                            output.o
BN_get0_nist_prime_224                            output.o
BN_get0_nist_prime_256                            output.o
BN_get0_nist_prime_384                            output.o
BN_get0_nist_prime_521                            output.o
BN_get_params                                     output.o
BN_get_word                                       output.o
BN_hex2bn                                         output.o
BN_init                                           output.o
BN_is_bit_set                                     output.o
BN_is_prime_ex                                    output.o
BN_is_prime_fasttest_ex                           output.o
BN_kronecker                                      output.o
BN_lshift                                         output.o
BN_lshift1                                        output.o
BN_mask_bits                                      output.o
BN_mod_add                                        output.o
BN_mod_add_quick                                  output.o
BN_mod_exp                                        output.o
BN_mod_exp2_mont                                  output.o
BN_mod_exp_mont                                   output.o
BN_mod_exp_mont_consttime                         output.o
BN_mod_exp_mont_word                              output.o
BN_mod_exp_recp                                   output.o
BN_mod_exp_simple                                 output.o
BN_mod_inverse                                    output.o
BN_mod_lshift                                     output.o
BN_mod_lshift1                                    output.o
BN_mod_lshift1_quick                              output.o
BN_mod_lshift_quick                               output.o
BN_mod_mul                                        output.o
BN_mod_mul_montgomery                             output.o
BN_mod_mul_reciprocal                             output.o
BN_mod_sqr                                        output.o
BN_mod_sqrt                                       output.o
BN_mod_sub                                        output.o
BN_mod_sub_quick                                  output.o
BN_mod_word                                       output.o
BN_mul                                            output.o
BN_mul_word                                       output.o
BN_new                                            output.o
BN_nist_mod_192                                   output.o
BN_nist_mod_224                                   output.o
BN_nist_mod_256                                   output.o
BN_nist_mod_384                                   output.o
BN_nist_mod_521                                   output.o
BN_nnmod                                          output.o
BN_num_bits                                       output.o
BN_num_bits_word                                  output.o
BN_options                                        output.o
BN_print                                          output.o
BN_pseudo_rand                                    output.o
BN_pseudo_rand_range                              output.o
BN_rand                                           output.o
BN_rand_range                                     output.o
BN_reciprocal                                     output.o
BN_rshift                                         output.o
BN_rshift1                                        output.o
BN_set_bit                                        output.o
BN_set_negative                                   output.o
BN_set_params                                     output.o
BN_set_word                                       output.o
BN_sqr                                            output.o
BN_sub                                            output.o
BN_sub_word                                       output.o
BN_swap                                           output.o
BN_to_ASN1_ENUMERATED                             output.o
BN_to_ASN1_INTEGER                                output.o
BN_uadd                                           output.o
BN_ucmp                                           output.o
BN_usub                                           output.o
BN_value_one                                      output.o
BN_version                                        output.o
BUF_MEM_free                                      output.o
BUF_MEM_grow                                      output.o
BUF_MEM_grow_clean                                output.o
BUF_MEM_new                                       output.o
BUF_memdup                                        output.o
BUF_reverse                                       output.o
BUF_strdup                                        output.o
BUF_strlcat                                       output.o
BUF_strlcpy                                       output.o
BUF_strndup                                       output.o
BlockSendCardT1                                   output.o
CAST_S_table0                                     output.o
CAST_S_table1                                     output.o
CAST_S_table2                                     output.o
CAST_S_table3                                     output.o
CAST_S_table4                                     output.o
CAST_S_table5                                     output.o
CAST_S_table6                                     output.o
CAST_S_table7                                     output.o
CAST_cbc_encrypt                                  output.o
CAST_cfb64_encrypt                                output.o
CAST_decrypt                                      output.o
CAST_ecb_encrypt                                  output.o
CAST_encrypt                                      output.o
CAST_ofb64_encrypt                                output.o
CAST_set_key                                      output.o
CAST_version                                      output.o
CBIGNUM_it                                        output.o
CERTIFICATEPOLICIES_free                          output.o
CERTIFICATEPOLICIES_it                            output.o
CERTIFICATEPOLICIES_new                           output.o
CMS_Attributes_Sign_it                            output.o
CMS_Attributes_Verify_it                          output.o
CMS_AuthenticatedData_it                          output.o
CMS_CertificateChoices_it                         output.o
CMS_CompressedData_it                             output.o
CMS_ContentInfo_free                              output.o
CMS_ContentInfo_it                                output.o
CMS_ContentInfo_new                               output.o
CMS_ContentInfo_print_ctx                         output.o
CMS_DigestedData_it                               output.o
CMS_EncapsulatedContentInfo_it                    output.o
CMS_EncryptedContentInfo_it                       output.o
CMS_EncryptedData_it                              output.o
CMS_EncryptedData_set1_key                        output.o
CMS_EnvelopedData_create                          output.o
CMS_EnvelopedData_it                              output.o
CMS_IssuerAndSerialNumber_it                      output.o
CMS_KEKIdentifier_it                              output.o
CMS_KEKRecipientInfo_it                           output.o
CMS_KeyAgreeRecipientIdentifier_it                output.o
CMS_KeyAgreeRecipientInfo_it                      output.o
CMS_KeyTransRecipientInfo_it                      output.o
CMS_OriginatorIdentifierOrKey_it                  output.o
CMS_OriginatorInfo_it                             output.o
CMS_OriginatorPublicKey_it                        output.o
CMS_OtherCertificateFormat_it                     output.o
CMS_OtherKeyAttribute_it                          output.o
CMS_OtherRecipientInfo_it                         output.o
CMS_OtherRevocationInfoFormat_it                  output.o
CMS_PasswordRecipientInfo_it                      output.o
CMS_ReceiptRequest_it                             output.o
CMS_Receipt_it                                    output.o
CMS_ReceiptsFrom_it                               output.o
CMS_RecipientEncryptedKey_it                      output.o
CMS_RecipientInfo_decrypt                         output.o
CMS_RecipientInfo_it                              output.o
CMS_RecipientInfo_kekri_get0_id                   output.o
CMS_RecipientInfo_kekri_id_cmp                    output.o
CMS_RecipientInfo_ktri_cert_cmp                   output.o
CMS_RecipientInfo_ktri_get0_algs                  output.o
CMS_RecipientInfo_ktri_get0_signer_id             output.o
CMS_RecipientInfo_set0_key                        output.o
CMS_RecipientInfo_set0_pkey                       output.o
CMS_RecipientInfo_type                            output.o
CMS_RecipientKeyIdentifier_it                     output.o
CMS_RevocationInfoChoice_it                       output.o
CMS_SignedData_init                               output.o
CMS_SignedData_it                                 output.o
CMS_SignerIdentifier_it                           output.o
CMS_SignerInfo_cert_cmp                           output.o
CMS_SignerInfo_get0_algs                          output.o
CMS_SignerInfo_get0_signer_id                     output.o
CMS_SignerInfo_it                                 output.o
CMS_SignerInfo_set1_signer_cert                   output.o
CMS_SignerInfo_sign                               output.o
CMS_SignerInfo_verify                             output.o
CMS_SignerInfo_verify_content                     output.o
CMS_add0_CertificateChoices                       output.o
CMS_add0_RevocationInfoChoice                     output.o
CMS_add0_cert                                     output.o
CMS_add0_crl                                      output.o
CMS_add0_recipient_key                            output.o
CMS_add1_cert                                     output.o
CMS_add1_crl                                      output.o
CMS_add1_recipient_cert                           output.o
CMS_add1_signer                                   output.o
CMS_add_simple_smimecap                           output.o
CMS_add_smimecap                                  output.o
CMS_add_standard_smimecap                         output.o
CMS_dataFinal                                     output.o
CMS_dataInit                                      output.o
CMS_get0_RecipientInfos                           output.o
CMS_get0_SignerInfos                              output.o
CMS_get0_content                                  output.o
CMS_get0_eContentType                             output.o
CMS_get0_signers                                  output.o
CMS_get0_type                                     output.o
CMS_get1_certs                                    output.o
CMS_get1_crls                                     output.o
CMS_is_detached                                   output.o
CMS_set1_eContentType                             output.o
CMS_set1_signers_certs                            output.o
CMS_set_detached                                  output.o
CMS_signed_add1_attr                              output.o
CMS_signed_add1_attr_by_NID                       output.o
CMS_signed_add1_attr_by_OBJ                       output.o
CMS_signed_add1_attr_by_txt                       output.o
CMS_signed_delete_attr                            output.o
CMS_signed_get0_data_by_OBJ                       output.o
CMS_signed_get_attr                               output.o
CMS_signed_get_attr_by_NID                        output.o
CMS_signed_get_attr_by_OBJ                        output.o
CMS_signed_get_attr_count                         output.o
CMS_stream                                        output.o
CMS_unsigned_add1_attr                            output.o
CMS_unsigned_add1_attr_by_NID                     output.o
CMS_unsigned_add1_attr_by_OBJ                     output.o
CMS_unsigned_add1_attr_by_txt                     output.o
CMS_unsigned_delete_attr                          output.o
CMS_unsigned_get0_data_by_OBJ                     output.o
CMS_unsigned_get_attr                             output.o
CMS_unsigned_get_attr_by_NID                      output.o
CMS_unsigned_get_attr_by_OBJ                      output.o
CMS_unsigned_get_attr_count                       output.o
CONF_def_version                                  output.o
CONF_dump_bio                                     output.o
CONF_free                                         output.o
CONF_get1_default_config_file                     output.o
CONF_get_number                                   output.o
CONF_get_section                                  output.o
CONF_get_string                                   output.o
CONF_imodule_get_flags                            output.o
CONF_imodule_get_module                           output.o
CONF_imodule_get_name                             output.o
CONF_imodule_get_usr_data                         output.o
CONF_imodule_get_value                            output.o
CONF_imodule_set_flags                            output.o
CONF_imodule_set_usr_data                         output.o
CONF_load                                         output.o
CONF_load_bio                                     output.o
CONF_module_add                                   output.o
CONF_module_get_usr_data                          output.o
CONF_module_set_usr_data                          output.o
CONF_modules_finish                               output.o
CONF_modules_free                                 output.o
CONF_modules_load                                 output.o
CONF_modules_load_file                            output.o
CONF_modules_unload                               output.o
CONF_parse_list                                   output.o
CONF_set_default_method                           output.o
CONF_set_nconf                                    output.o
CONF_version                                      output.o
CRL_DIST_POINTS_free                              output.o
CRL_DIST_POINTS_it                                output.o
CRL_DIST_POINTS_new                               output.o
CRYPTO_THREADID_cmp                               output.o
CRYPTO_THREADID_cpy                               output.o
CRYPTO_THREADID_current                           output.o
CRYPTO_THREADID_get_callback                      output.o
CRYPTO_THREADID_hash                              output.o
CRYPTO_THREADID_set_callback                      output.o
CRYPTO_THREADID_set_numeric                       output.o
CRYPTO_THREADID_set_pointer                       output.o
CRYPTO_add_lock                                   output.o
CRYPTO_cbc128_decrypt                             output.o
CRYPTO_cbc128_encrypt                             output.o
CRYPTO_cfb128_1_encrypt                           output.o
CRYPTO_cfb128_8_encrypt                           output.o
CRYPTO_cfb128_encrypt                             output.o
CRYPTO_cleanup_all_ex_data                        output.o
CRYPTO_dbg_free                                   output.o
CRYPTO_dbg_get_options                            output.o
CRYPTO_dbg_malloc                                 output.o
CRYPTO_dbg_realloc                                output.o
CRYPTO_dbg_set_options                            output.o
CRYPTO_destroy_dynlockid                          output.o
CRYPTO_dup_ex_data                                output.o
CRYPTO_ex_data_new_class                          output.o
CRYPTO_free                                       output.o
CRYPTO_free_ex_data                               output.o
CRYPTO_free_locked                                output.o
CRYPTO_get_add_lock_callback                      output.o
CRYPTO_get_dynlock_create_callback                output.o
CRYPTO_get_dynlock_destroy_callback               output.o
CRYPTO_get_dynlock_lock_callback                  output.o
CRYPTO_get_dynlock_value                          output.o
CRYPTO_get_ex_data                                output.o
CRYPTO_get_ex_data_implementation                 output.o
CRYPTO_get_ex_new_index                           output.o
CRYPTO_get_id_callback                            output.o
CRYPTO_get_lock_name                              output.o
CRYPTO_get_locked_mem_ex_functions                output.o
CRYPTO_get_locked_mem_functions                   output.o
CRYPTO_get_locking_callback                       output.o
CRYPTO_get_mem_debug_functions                    output.o
CRYPTO_get_mem_debug_options                      output.o
CRYPTO_get_mem_ex_functions                       output.o
CRYPTO_get_mem_functions                          output.o
CRYPTO_get_new_dynlockid                          output.o
CRYPTO_get_new_lockid                             output.o
CRYPTO_is_mem_check_on                            output.o
CRYPTO_lock                                       output.o
CRYPTO_malloc                                     output.o
CRYPTO_malloc_locked                              output.o
CRYPTO_mem_ctrl                                   output.o
CRYPTO_mem_leaks                                  output.o
CRYPTO_mem_leaks_cb                               output.o
CRYPTO_memcmp                                     output.o
CRYPTO_new_ex_data                                output.o
CRYPTO_num_locks                                  output.o
CRYPTO_ofb128_encrypt                             output.o
CRYPTO_pop_info                                   output.o
CRYPTO_push_info_                                 output.o
CRYPTO_realloc                                    output.o
CRYPTO_realloc_clean                              output.o
CRYPTO_remalloc                                   output.o
CRYPTO_remove_all_info                            output.o
CRYPTO_set_add_lock_callback                      output.o
CRYPTO_set_dynlock_create_callback                output.o
CRYPTO_set_dynlock_destroy_callback               output.o
CRYPTO_set_dynlock_lock_callback                  output.o
CRYPTO_set_ex_data                                output.o
CRYPTO_set_ex_data_implementation                 output.o
CRYPTO_set_id_callback                            output.o
CRYPTO_set_locked_mem_ex_functions                output.o
CRYPTO_set_locked_mem_functions                   output.o
CRYPTO_set_locking_callback                       output.o
CRYPTO_set_mem_debug_functions                    output.o
CRYPTO_set_mem_debug_options                      output.o
CRYPTO_set_mem_ex_functions                       output.o
CRYPTO_set_mem_functions                          output.o
CRYPTO_strdup                                     output.o
CRYPTO_thread_id                                  output.o
C_CloseAllSessions                                output.o
C_CloseSession                                    output.o
C_CreateObject                                    output.o
C_DestroyObject                                   output.o
C_DigestFinal                                     output.o
C_DigestInit                                      output.o
C_DigestUpdate                                    output.o
C_Finalize                                        output.o
C_FindObjects                                     output.o
C_FindObjectsFinal                                output.o
C_FindObjectsInit                                 output.o
C_GetAttributeValue                               output.o
C_GetCardStatus                                   output.o
C_GetFunctionList                                 output.o
C_GetInfo                                         output.o
C_GetMechanismInfo                                output.o
C_GetMechanismList                                output.o
C_GetSessionInfo                                  output.o
C_GetSlotInfo                                     output.o
C_GetSlotList                                     output.o
C_GetTokenInfo                                    output.o
C_Initialize                                      output.o
C_Login                                           output.o
C_Logout                                          output.o
C_OpenSession                                     output.o
C_SetAttributeValue                               output.o
C_Sign                                            output.o
C_SignInit                                        output.o
C_Verify                                          output.o
C_VerifyInit                                      output.o
CardConnect                                       output.o
CardDisconnect                                    output.o
CardEstablishContext                              output.o
CardListReaders                                   output.o
CardMechanical                                    output.o
CardReleaseContext                                output.o
CardStateConfirm                                  output.o
CardStatus                                        output.o
CardTransmit                                      output.o
CloseUSB                                          output.o
DES_SPtrans                                       output.o
DES_cfb64_encrypt                                 output.o
DES_cfb_encrypt                                   output.o
DES_check_key_parity                              output.o
DES_decrypt3                                      output.o
DES_ecb3_encrypt                                  output.o
DES_ecb_encrypt                                   output.o
DES_ede3_cbc_encrypt                              output.o
DES_ede3_cfb64_encrypt                            output.o
DES_ede3_cfb_encrypt                              output.o
DES_ede3_ofb64_encrypt                            output.o
DES_encrypt1                                      output.o
DES_encrypt2                                      output.o
DES_encrypt3                                      output.o
DES_is_weak_key                                   output.o
DES_key_sched                                     output.o
DES_ncbc_encrypt                                  output.o
DES_ofb64_encrypt                                 output.o
DES_options                                       output.o
DES_set_key                                       output.o
DES_set_key_checked                               output.o
DES_set_key_unchecked                             output.o
DES_set_odd_parity                                output.o
DES_xcbc_encrypt                                  output.o
DH_OpenSSL                                        output.o
DH_check                                          output.o
DH_check_pub_key                                  output.o
DH_compute_key                                    output.o
DH_free                                           output.o
DH_generate_key                                   output.o
DH_generate_parameters_ex                         output.o
DH_get_default_method                             output.o
DH_get_ex_data                                    output.o
DH_get_ex_new_index                               output.o
DH_new                                            output.o
DH_new_method                                     output.o
DH_set_default_method                             output.o
DH_set_ex_data                                    output.o
DH_set_method                                     output.o
DH_size                                           output.o
DH_up_ref                                         output.o
DH_version                                        output.o
DHparams_dup                                      output.o
DHparams_it                                       output.o
DHparams_print                                    output.o
DI                                                output.o
DIRECTORYSTRING_free                              output.o
DIRECTORYSTRING_it                                output.o
DIRECTORYSTRING_new                               output.o
DISPLAYTEXT_free                                  output.o
DISPLAYTEXT_it                                    output.o
DISPLAYTEXT_new                                   output.o
DIST_POINT_NAME_free                              output.o
DIST_POINT_NAME_it                                output.o
DIST_POINT_NAME_new                               output.o
DIST_POINT_free                                   output.o
DIST_POINT_it                                     output.o
DIST_POINT_new                                    output.o
DIST_POINT_set_dpname                             output.o
DSAPrivateKey_it                                  output.o
DSAPublicKey_it                                   output.o
DSA_OpenSSL                                       output.o
DSA_SIG_free                                      output.o
DSA_SIG_it                                        output.o
DSA_SIG_new                                       output.o
DSA_do_sign                                       output.o
DSA_do_verify                                     output.o
DSA_dup_DH                                        output.o
DSA_free                                          output.o
DSA_generate_key                                  output.o
DSA_generate_parameters_ex                        output.o
DSA_get_default_method                            output.o
DSA_get_ex_data                                   output.o
DSA_get_ex_new_index                              output.o
DSA_new                                           output.o
DSA_new_method                                    output.o
DSA_set_default_method                            output.o
DSA_set_ex_data                                   output.o
DSA_set_method                                    output.o
DSA_sign                                          output.o
DSA_sign_setup                                    output.o
DSA_size                                          output.o
DSA_up_ref                                        output.o
DSA_verify                                        output.o
DSA_version                                       output.o
DSAparams_dup                                     output.o
DSAparams_it                                      output.o
DSO_METHOD_null                                   output.o
DSO_METHOD_openssl                                output.o
DSO_bind_func                                     output.o
DSO_bind_var                                      output.o
DSO_convert_filename                              output.o
DSO_ctrl                                          output.o
DSO_flags                                         output.o
DSO_free                                          output.o
DSO_get_default_method                            output.o
DSO_get_filename                                  output.o
DSO_get_loaded_filename                           output.o
DSO_get_method                                    output.o
DSO_global_lookup                                 output.o
DSO_load                                          output.o
DSO_merge                                         output.o
DSO_new                                           output.o
DSO_new_method                                    output.o
DSO_pathbyaddr                                    output.o
DSO_set_default_method                            output.o
DSO_set_filename                                  output.o
DSO_set_method                                    output.o
DSO_set_name_converter                            output.o
DSO_up_ref                                        output.o
DelElem                                           output.o
DestroyAttribute                                  output.o
DestroyElem                                       output.o
DestroyList                                       output.o
DestroySessionData                                output.o
DestroySlotData                                   output.o
DestroyTlvData                                    output.o
DestroyTokenData                                  output.o
ECDH_OpenSSL                                      output.o
ECDH_compute_key                                  output.o
ECDH_get_default_method                           output.o
ECDH_get_ex_data                                  output.o
ECDH_get_ex_new_index                             output.o
ECDH_set_default_method                           output.o
ECDH_set_ex_data                                  output.o
ECDH_set_method                                   output.o
ECDH_version                                      output.o
ECDSA_OpenSSL                                     output.o
ECDSA_SIG_free                                    output.o
ECDSA_SIG_it                                      output.o
ECDSA_SIG_new                                     output.o
ECDSA_do_sign                                     output.o
ECDSA_do_sign_ex                                  output.o
ECDSA_do_verify                                   output.o
ECDSA_get_default_method                          output.o
ECDSA_get_ex_data                                 output.o
ECDSA_get_ex_new_index                            output.o
ECDSA_set_default_method                          output.o
ECDSA_set_ex_data                                 output.o
ECDSA_set_method                                  output.o
ECDSA_sign                                        output.o
ECDSA_sign_ex                                     output.o
ECDSA_sign_setup                                  output.o
ECDSA_size                                        output.o
ECDSA_verify                                      output.o
ECDSA_version                                     output.o
ECPARAMETERS_free                                 output.o
ECPARAMETERS_it                                   output.o
ECPARAMETERS_new                                  output.o
ECPKPARAMETERS_free                               output.o
ECPKPARAMETERS_it                                 output.o
ECPKPARAMETERS_new                                output.o
ECPKParameters_print                              output.o
ECParameters_print                                output.o
EC_EX_DATA_clear_free_all_data                    output.o
EC_EX_DATA_clear_free_data                        output.o
EC_EX_DATA_free_all_data                          output.o
EC_EX_DATA_free_data                              output.o
EC_EX_DATA_get_data                               output.o
EC_EX_DATA_set_data                               output.o
EC_GF2m_simple_method                             output.o
EC_GFp_mont_method                                output.o
EC_GFp_nist_method                                output.o
EC_GFp_simple_method                              output.o
EC_GROUP_check_discriminant                       output.o
EC_GROUP_clear_free                               output.o
EC_GROUP_cmp                                      output.o
EC_GROUP_copy                                     output.o
EC_GROUP_dup                                      output.o
EC_GROUP_free                                     output.o
EC_GROUP_get0_generator                           output.o
EC_GROUP_get0_seed                                output.o
EC_GROUP_get_asn1_flag                            output.o
EC_GROUP_get_basis_type                           output.o
EC_GROUP_get_cofactor                             output.o
EC_GROUP_get_curve_GF2m                           output.o
EC_GROUP_get_curve_GFp                            output.o
EC_GROUP_get_curve_name                           output.o
EC_GROUP_get_degree                               output.o
EC_GROUP_get_order                                output.o
EC_GROUP_get_pentanomial_basis                    output.o
EC_GROUP_get_point_conversion_form                output.o
EC_GROUP_get_seed_len                             output.o
EC_GROUP_get_trinomial_basis                      output.o
EC_GROUP_have_precompute_mult                     output.o
EC_GROUP_method_of                                output.o
EC_GROUP_new                                      output.o
EC_GROUP_new_by_curve_name                        output.o
EC_GROUP_new_curve_GF2m                           output.o
EC_GROUP_new_curve_GFp                            output.o
EC_GROUP_precompute_mult                          output.o
EC_GROUP_set_asn1_flag                            output.o
EC_GROUP_set_curve_GF2m                           output.o
EC_GROUP_set_curve_GFp                            output.o
EC_GROUP_set_curve_name                           output.o
EC_GROUP_set_generator                            output.o
EC_GROUP_set_point_conversion_form                output.o
EC_GROUP_set_seed                                 output.o
EC_KEY_check_key                                  output.o
EC_KEY_copy                                       output.o
EC_KEY_dup                                        output.o
EC_KEY_free                                       output.o
EC_KEY_generate_key                               output.o
EC_KEY_get0_group                                 output.o
EC_KEY_get0_private_key                           output.o
EC_KEY_get0_public_key                            output.o
EC_KEY_get_conv_form                              output.o
EC_KEY_get_enc_flags                              output.o
EC_KEY_get_key_method_data                        output.o
EC_KEY_insert_key_method_data                     output.o
EC_KEY_new                                        output.o
EC_KEY_new_by_curve_name                          output.o
EC_KEY_precompute_mult                            output.o
EC_KEY_print                                      output.o
EC_KEY_set_asn1_flag                              output.o
EC_KEY_set_conv_form                              output.o
EC_KEY_set_enc_flags                              output.o
EC_KEY_set_group                                  output.o
EC_KEY_set_private_key                            output.o
EC_KEY_set_public_key                             output.o
EC_KEY_up_ref                                     output.o
EC_METHOD_get_field_type                          output.o
EC_POINT_add                                      output.o
EC_POINT_bn2point                                 output.o
EC_POINT_clear_free                               output.o
EC_POINT_cmp                                      output.o
EC_POINT_copy                                     output.o
EC_POINT_dbl                                      output.o
EC_POINT_dup                                      output.o
EC_POINT_free                                     output.o
EC_POINT_get_Jprojective_coordinates_GFp          output.o
EC_POINT_get_affine_coordinates_GF2m              output.o
EC_POINT_get_affine_coordinates_GFp               output.o
EC_POINT_hex2point                                output.o
EC_POINT_invert                                   output.o
EC_POINT_is_at_infinity                           output.o
EC_POINT_is_on_curve                              output.o
EC_POINT_make_affine                              output.o
EC_POINT_method_of                                output.o
EC_POINT_mul                                      output.o
EC_POINT_new                                      output.o
EC_POINT_oct2point                                output.o
EC_POINT_point2bn                                 output.o
EC_POINT_point2hex                                output.o
EC_POINT_point2oct                                output.o
EC_POINT_set_Jprojective_coordinates_GFp          output.o
EC_POINT_set_affine_coordinates_GF2m              output.o
EC_POINT_set_affine_coordinates_GFp               output.o
EC_POINT_set_compressed_coordinates_GF2m          output.o
EC_POINT_set_compressed_coordinates_GFp           output.o
EC_POINT_set_to_infinity                          output.o
EC_POINTs_make_affine                             output.o
EC_POINTs_mul                                     output.o
EC_PRIVATEKEY_free                                output.o
EC_PRIVATEKEY_it                                  output.o
EC_PRIVATEKEY_new                                 output.o
EC_get_builtin_curves                             output.o
EDIPARTYNAME_free                                 output.o
EDIPARTYNAME_it                                   output.o
EDIPARTYNAME_new                                  output.o
EHDestroyEventHandler                             output.o
EHInitEventHandler                                output.o
EHStatusHandler                                   output.o
ERR_add_error_data                                output.o
ERR_clear_error                                   output.o
ERR_error_string                                  output.o
ERR_error_string_n                                output.o
ERR_free_strings                                  output.o
ERR_func_error_string                             output.o
ERR_get_err_state_table                           output.o
ERR_get_error                                     output.o
ERR_get_error_line                                output.o
ERR_get_error_line_data                           output.o
ERR_get_implementation                            output.o
ERR_get_next_error_library                        output.o
ERR_get_state                                     output.o
ERR_get_string_table                              output.o
ERR_lib_error_string                              output.o
ERR_load_ASN1_strings                             output.o
ERR_load_BIO_strings                              output.o
ERR_load_BN_strings                               output.o
ERR_load_BUF_strings                              output.o
ERR_load_CMS_strings                              output.o
ERR_load_COMP_strings                             output.o
ERR_load_CONF_strings                             output.o
ERR_load_CRYPTO_strings                           output.o
ERR_load_DH_strings                               output.o
ERR_load_DSA_strings                              output.o
ERR_load_DSO_strings                              output.o
ERR_load_ECDH_strings                             output.o
ERR_load_ECDSA_strings                            output.o
ERR_load_EC_strings                               output.o
ERR_load_ERR_strings                              output.o
ERR_load_EVP_strings                              output.o
ERR_load_OBJ_strings                              output.o
ERR_load_OCSP_strings                             output.o
ERR_load_PEM_strings                              output.o
ERR_load_PKCS12_strings                           output.o
ERR_load_PKCS7_strings                            output.o
ERR_load_RAND_strings                             output.o
ERR_load_RSA_strings                              output.o
ERR_load_TS_strings                               output.o
ERR_load_UI_strings                               output.o
ERR_load_X509V3_strings                           output.o
ERR_load_X509_strings                             output.o
ERR_load_crypto_strings                           output.o
ERR_load_strings                                  output.o
ERR_peek_error                                    output.o
ERR_peek_error_line                               output.o
ERR_peek_error_line_data                          output.o
ERR_peek_last_error                               output.o
ERR_peek_last_error_line                          output.o
ERR_peek_last_error_line_data                     output.o
ERR_pop_to_mark                                   output.o
ERR_print_errors                                  output.o
ERR_print_errors_cb                               output.o
ERR_put_error                                     output.o
ERR_reason_error_string                           output.o
ERR_release_err_state_table                       output.o
ERR_remove_state                                  output.o
ERR_remove_thread_state                           output.o
ERR_set_error_data                                output.o
ERR_set_implementation                            output.o
ERR_set_mark                                      output.o
ERR_unload_strings                                output.o
EVP_BytesToKey                                    output.o
EVP_CIPHER_CTX_block_size                         output.o
EVP_CIPHER_CTX_cipher                             output.o
EVP_CIPHER_CTX_cleanup                            output.o
EVP_CIPHER_CTX_clear_flags                        output.o
EVP_CIPHER_CTX_copy                               output.o
EVP_CIPHER_CTX_ctrl                               output.o
EVP_CIPHER_CTX_flags                              output.o
EVP_CIPHER_CTX_free                               output.o
EVP_CIPHER_CTX_get_app_data                       output.o
EVP_CIPHER_CTX_init                               output.o
EVP_CIPHER_CTX_iv_length                          output.o
EVP_CIPHER_CTX_key_length                         output.o
EVP_CIPHER_CTX_new                                output.o
EVP_CIPHER_CTX_nid                                output.o
EVP_CIPHER_CTX_rand_key                           output.o
EVP_CIPHER_CTX_set_app_data                       output.o
EVP_CIPHER_CTX_set_flags                          output.o
EVP_CIPHER_CTX_set_key_length                     output.o
EVP_CIPHER_CTX_set_padding                        output.o
EVP_CIPHER_CTX_test_flags                         output.o
EVP_CIPHER_asn1_to_param                          output.o
EVP_CIPHER_block_size                             output.o
EVP_CIPHER_do_all                                 output.o
EVP_CIPHER_do_all_sorted                          output.o
EVP_CIPHER_flags                                  output.o
EVP_CIPHER_get_asn1_iv                            output.o
EVP_CIPHER_iv_length                              output.o
EVP_CIPHER_key_length                             output.o
EVP_CIPHER_nid                                    output.o
EVP_CIPHER_param_to_asn1                          output.o
EVP_CIPHER_set_asn1_iv                            output.o
EVP_CIPHER_type                                   output.o
EVP_Cipher                                        output.o
EVP_CipherFinal                                   output.o
EVP_CipherFinal_ex                                output.o
EVP_CipherInit                                    output.o
EVP_CipherInit_ex                                 output.o
EVP_CipherUpdate                                  output.o
EVP_DecodeBlock                                   output.o
EVP_DecodeFinal                                   output.o
EVP_DecodeInit                                    output.o
EVP_DecodeUpdate                                  output.o
EVP_DecryptFinal                                  output.o
EVP_DecryptFinal_ex                               output.o
EVP_DecryptInit                                   output.o
EVP_DecryptInit_ex                                output.o
EVP_DecryptUpdate                                 output.o
EVP_Digest                                        output.o
EVP_DigestFinal                                   output.o
EVP_DigestFinal_ex                                output.o
EVP_DigestInit                                    output.o
EVP_DigestInit_ex                                 output.o
EVP_DigestSignFinal                               output.o
EVP_DigestSignInit                                output.o
EVP_DigestUpdate                                  output.o
EVP_DigestVerifyFinal                             output.o
EVP_DigestVerifyInit                              output.o
EVP_EncodeBlock                                   output.o
EVP_EncodeFinal                                   output.o
EVP_EncodeInit                                    output.o
EVP_EncodeUpdate                                  output.o
EVP_EncryptFinal                                  output.o
EVP_EncryptFinal_ex                               output.o
EVP_EncryptInit                                   output.o
EVP_EncryptInit_ex                                output.o
EVP_EncryptUpdate                                 output.o
EVP_MD_CTX_cleanup                                output.o
EVP_MD_CTX_clear_flags                            output.o
EVP_MD_CTX_copy                                   output.o
EVP_MD_CTX_copy_ex                                output.o
EVP_MD_CTX_create                                 output.o
EVP_MD_CTX_destroy                                output.o
EVP_MD_CTX_init                                   output.o
EVP_MD_CTX_md                                     output.o
EVP_MD_CTX_set_flags                              output.o
EVP_MD_CTX_test_flags                             output.o
EVP_MD_block_size                                 output.o
EVP_MD_do_all                                     output.o
EVP_MD_do_all_sorted                              output.o
EVP_MD_flags                                      output.o
EVP_MD_pkey_type                                  output.o
EVP_MD_size                                       output.o
EVP_MD_type                                       output.o
EVP_PBE_CipherInit                                output.o
EVP_PBE_alg_add                                   output.o
EVP_PBE_alg_add_type                              output.o
EVP_PBE_cleanup                                   output.o
EVP_PBE_find                                      output.o
EVP_PKCS82PKEY                                    output.o
EVP_PKEY2PKCS8                                    output.o
EVP_PKEY2PKCS8_broken                             output.o
EVP_PKEY_CTX_ctrl                                 output.o
EVP_PKEY_CTX_ctrl_str                             output.o
EVP_PKEY_CTX_dup                                  output.o
EVP_PKEY_CTX_free                                 output.o
EVP_PKEY_CTX_get0_peerkey                         output.o
EVP_PKEY_CTX_get0_pkey                            output.o
EVP_PKEY_CTX_get_app_data                         output.o
EVP_PKEY_CTX_get_cb                               output.o
EVP_PKEY_CTX_get_data                             output.o
EVP_PKEY_CTX_get_keygen_info                      output.o
EVP_PKEY_CTX_get_operation                        output.o
EVP_PKEY_CTX_new                                  output.o
EVP_PKEY_CTX_new_id                               output.o
EVP_PKEY_CTX_set0_keygen_info                     output.o
EVP_PKEY_CTX_set_app_data                         output.o
EVP_PKEY_CTX_set_cb                               output.o
EVP_PKEY_CTX_set_data                             output.o
EVP_PKEY_add1_attr                                output.o
EVP_PKEY_add1_attr_by_NID                         output.o
EVP_PKEY_add1_attr_by_OBJ                         output.o
EVP_PKEY_add1_attr_by_txt                         output.o
EVP_PKEY_asn1_add0                                output.o
EVP_PKEY_asn1_add_alias                           output.o
EVP_PKEY_asn1_copy                                output.o
EVP_PKEY_asn1_find                                output.o
EVP_PKEY_asn1_find_str                            output.o
EVP_PKEY_asn1_free                                output.o
EVP_PKEY_asn1_get0                                output.o
EVP_PKEY_asn1_get0_info                           output.o
EVP_PKEY_asn1_get_count                           output.o
EVP_PKEY_asn1_new                                 output.o
EVP_PKEY_asn1_set_ctrl                            output.o
EVP_PKEY_asn1_set_free                            output.o
EVP_PKEY_asn1_set_param                           output.o
EVP_PKEY_asn1_set_private                         output.o
EVP_PKEY_asn1_set_public                          output.o
EVP_PKEY_assign                                   output.o
EVP_PKEY_base_id                                  output.o
EVP_PKEY_bits                                     output.o
EVP_PKEY_cmp                                      output.o
EVP_PKEY_cmp_parameters                           output.o
EVP_PKEY_copy_parameters                          output.o
EVP_PKEY_decrypt                                  output.o
EVP_PKEY_decrypt_init                             output.o
EVP_PKEY_delete_attr                              output.o
EVP_PKEY_derive                                   output.o
EVP_PKEY_derive_init                              output.o
EVP_PKEY_derive_set_peer                          output.o
EVP_PKEY_encrypt                                  output.o
EVP_PKEY_encrypt_init                             output.o
EVP_PKEY_free                                     output.o
EVP_PKEY_get0                                     output.o
EVP_PKEY_get0_asn1                                output.o
EVP_PKEY_get1_DH                                  output.o
EVP_PKEY_get1_DSA                                 output.o
EVP_PKEY_get1_EC_KEY                              output.o
EVP_PKEY_get1_RSA                                 output.o
EVP_PKEY_get_attr                                 output.o
EVP_PKEY_get_attr_by_NID                          output.o
EVP_PKEY_get_attr_by_OBJ                          output.o
EVP_PKEY_get_attr_count                           output.o
EVP_PKEY_get_default_digest_nid                   output.o
EVP_PKEY_id                                       output.o
EVP_PKEY_keygen                                   output.o
EVP_PKEY_keygen_init                              output.o
EVP_PKEY_meth_add0                                output.o
EVP_PKEY_meth_find                                output.o
EVP_PKEY_meth_free                                output.o
EVP_PKEY_meth_new                                 output.o
EVP_PKEY_meth_set_cleanup                         output.o
EVP_PKEY_meth_set_copy                            output.o
EVP_PKEY_meth_set_ctrl                            output.o
EVP_PKEY_meth_set_decrypt                         output.o
EVP_PKEY_meth_set_derive                          output.o
EVP_PKEY_meth_set_encrypt                         output.o
EVP_PKEY_meth_set_init                            output.o
EVP_PKEY_meth_set_keygen                          output.o
EVP_PKEY_meth_set_paramgen                        output.o
EVP_PKEY_meth_set_sign                            output.o
EVP_PKEY_meth_set_signctx                         output.o
EVP_PKEY_meth_set_verify                          output.o
EVP_PKEY_meth_set_verify_recover                  output.o
EVP_PKEY_meth_set_verifyctx                       output.o
EVP_PKEY_missing_parameters                       output.o
EVP_PKEY_new                                      output.o
EVP_PKEY_new_mac_key                              output.o
EVP_PKEY_paramgen                                 output.o
EVP_PKEY_paramgen_init                            output.o
EVP_PKEY_print_params                             output.o
EVP_PKEY_print_private                            output.o
EVP_PKEY_print_public                             output.o
EVP_PKEY_save_parameters                          output.o
EVP_PKEY_set1_DH                                  output.o
EVP_PKEY_set1_DSA                                 output.o
EVP_PKEY_set1_EC_KEY                              output.o
EVP_PKEY_set1_RSA                                 output.o
EVP_PKEY_set_type                                 output.o
EVP_PKEY_set_type_str                             output.o
EVP_PKEY_sign                                     output.o
EVP_PKEY_sign_init                                output.o
EVP_PKEY_size                                     output.o
EVP_PKEY_type                                     output.o
EVP_PKEY_verify                                   output.o
EVP_PKEY_verify_init                              output.o
EVP_PKEY_verify_recover                           output.o
EVP_PKEY_verify_recover_init                      output.o
EVP_SignFinal                                     output.o
EVP_VerifyFinal                                   output.o
EVP_add_cipher                                    output.o
EVP_add_digest                                    output.o
EVP_aes_128_cbc                                   output.o
EVP_aes_128_cfb1                                  output.o
EVP_aes_128_cfb128                                output.o
EVP_aes_128_cfb8                                  output.o
EVP_aes_128_ecb                                   output.o
EVP_aes_128_ofb                                   output.o
EVP_aes_192_cbc                                   output.o
EVP_aes_192_cfb1                                  output.o
EVP_aes_192_cfb128                                output.o
EVP_aes_192_cfb8                                  output.o
EVP_aes_192_ecb                                   output.o
EVP_aes_192_ofb                                   output.o
EVP_aes_256_cbc                                   output.o
EVP_aes_256_cfb1                                  output.o
EVP_aes_256_cfb128                                output.o
EVP_aes_256_cfb8                                  output.o
EVP_aes_256_ecb                                   output.o
EVP_aes_256_ofb                                   output.o
EVP_bf_cbc                                        output.o
EVP_bf_cfb64                                      output.o
EVP_bf_ecb                                        output.o
EVP_bf_ofb                                        output.o
EVP_cast5_cbc                                     output.o
EVP_cast5_cfb64                                   output.o
EVP_cast5_ecb                                     output.o
EVP_cast5_ofb                                     output.o
EVP_cleanup                                       output.o
EVP_des_cbc                                       output.o
EVP_des_cfb1                                      output.o
EVP_des_cfb64                                     output.o
EVP_des_cfb8                                      output.o
EVP_des_ecb                                       output.o
EVP_des_ede                                       output.o
EVP_des_ede3                                      output.o
EVP_des_ede3_cbc                                  output.o
EVP_des_ede3_cfb1                                 output.o
EVP_des_ede3_cfb64                                output.o
EVP_des_ede3_cfb8                                 output.o
EVP_des_ede3_ecb                                  output.o
EVP_des_ede3_ofb                                  output.o
EVP_des_ede_cbc                                   output.o
EVP_des_ede_cfb64                                 output.o
EVP_des_ede_ecb                                   output.o
EVP_des_ede_ofb                                   output.o
EVP_des_ofb                                       output.o
EVP_desx_cbc                                      output.o
EVP_dss                                           output.o
EVP_dss1                                          output.o
EVP_ecdsa                                         output.o
EVP_get_cipherbyname                              output.o
EVP_get_digestbyname                              output.o
EVP_get_pw_prompt                                 output.o
EVP_idea_cbc                                      output.o
EVP_idea_cfb64                                    output.o
EVP_idea_ecb                                      output.o
EVP_idea_ofb                                      output.o
EVP_md4                                           output.o
EVP_md5                                           output.o
EVP_rc2_40_cbc                                    output.o
EVP_rc2_64_cbc                                    output.o
EVP_rc2_cbc                                       output.o
EVP_rc2_cfb64                                     output.o
EVP_rc2_ecb                                       output.o
EVP_rc2_ofb                                       output.o
EVP_rc4                                           output.o
EVP_rc4_40                                        output.o
EVP_read_pw_string                                output.o
EVP_read_pw_string_min                            output.o
EVP_ripemd160                                     output.o
EVP_set_pw_prompt                                 output.o
EVP_sha                                           output.o
EVP_sha1                                          output.o
EVP_sha224                                        output.o
EVP_sha256                                        output.o
EVP_sha384                                        output.o
EVP_sha512                                        output.o
EVP_version                                       output.o
EVP_whirlpool                                     output.o
EXTENDED_KEY_USAGE_free                           output.o
EXTENDED_KEY_USAGE_it                             output.o
EXTENDED_KEY_USAGE_new                            output.o
ExchangePPSData                                   output.o
FI                                                output.o
FindBaudRateTable                                 output.o
GENERAL_NAMES_free                                output.o
GENERAL_NAMES_it                                  output.o
GENERAL_NAMES_new                                 output.o
GENERAL_NAME_cmp                                  output.o
GENERAL_NAME_dup                                  output.o
GENERAL_NAME_free                                 output.o
GENERAL_NAME_get0_otherName                       output.o
GENERAL_NAME_get0_value                           output.o
GENERAL_NAME_it                                   output.o
GENERAL_NAME_new                                  output.o
GENERAL_NAME_print                                output.o
GENERAL_NAME_set0_othername                       output.o
GENERAL_NAME_set0_value                           output.o
GENERAL_SUBTREE_free                              output.o
GENERAL_SUBTREE_it                                output.o
GENERAL_SUBTREE_new                               output.o
GetAttrValType                                    output.o
GetBWICWIData                                     output.o
GetCardStatus                                     output.o
GetDirDataByTlv                                   output.o
GetElem                                           output.o
GetICCardData                                     output.o
GetIFSCData                                       output.o
GetLength                                         output.o
GetOdfDataByTlv                                   output.o
GetTlvByBuf                                       output.o
GetTokenDataByTlv                                 output.o
GetUlByByte                                       output.o
GetUlByTxt                                        output.o
GetValueData                                      output.o
GetVerByTex                                       output.o
HMAC                                              output.o
HMAC_CTX_cleanup                                  output.o
HMAC_CTX_copy                                     output.o
HMAC_CTX_init                                     output.o
HMAC_CTX_set_flags                                output.o
HMAC_Final                                        output.o
HMAC_Init                                         output.o
HMAC_Init_ex                                      output.o
HMAC_Update                                       output.o
HPSearchHotPluggables                             output.o
IDEA_version                                      output.o
IDMan_CheckCardStatus                             output.o
IDMan_CmCheckCRL                                  output.o
IDMan_CmChgRSA                                    output.o
IDMan_CmGetCertificateSign                        output.o
IDMan_CmGetDN                                     output.o
IDMan_CmGetPublicKey                              output.o
IDMan_CmMakeRand                                  output.o
IDMan_CmMkHash                                    output.o
IDMan_CmPadding                                   output.o
IDMan_CmPadding2                                  output.o
IDMan_EncryptByIndex                              output.o
IDMan_IPCheckCrlPkcX                              output.o
IDMan_IPCheckPKC                                  output.o
IDMan_IPCheckSignature                            output.o
IDMan_IPCrSignature                               output.o
IDMan_IPFinalize                                  output.o
IDMan_IPFinalizeReader                            output.o
IDMan_IPIdPassListMalloc                          output.o
IDMan_IPInitialize                                output.o
IDMan_IPInitializeReader                          output.o
IDMan_IPMkPublicKeyObj                            output.o
IDMan_IPMkRandHash                                output.o
IDMan_IPRetJudgment                               output.o
IDMan_IPSignatureVerify                           output.o
IDMan_IPgCIndexParamChk                           output.o
IDMan_IPgCParamChk                                output.o
IDMan_IPgIdxSParamChk                             output.o
IDMan_IPgSParamChk                                output.o
IDMan_IPgetCertIdxPKCS                            output.o
IDMan_IPgetCertPKCS                               output.o
IDMan_IPgetCertPkeyIdxPKCSx                       output.o
IDMan_IPgetCertPkeyPKCSx                          output.o
IDMan_IPgetCertPkeyPKCSy                          output.o
IDMan_IPgetHash                                   output.o
IDMan_IPgetMakeRandData                           output.o
IDMan_IPgetPrivateKey                             output.o
IDMan_IPgetPrivateKeyPKCSx                        output.o
IDMan_IPuAPKCS11IdxParamChk                       output.o
IDMan_IPuAPKCS11ParamChk                          output.o
IDMan_IPvSIdxParamChk                             output.o
IDMan_IPvSParamChk                                output.o
IDMan_PaddingParamChk                             output.o
IDMan_SCardConnect                                output.o
IDMan_SCardDisconnect                             output.o
IDMan_SCardEstablishContext                       output.o
IDMan_SCardListReaders                            output.o
IDMan_SCardReleaseContext                         output.o
IDMan_SCardSetBinay                               output.o
IDMan_SCardSizeLongToChar                         output.o
IDMan_SCardStatus                                 output.o
IDMan_SCardTransmit                               output.o
IDMan_StAtoi                                      output.o
IDMan_StAtol                                      output.o
IDMan_StFree                                      output.o
IDMan_StMalloc                                    output.o
IDMan_StMemcmp                                    output.o
IDMan_StMemcpy                                    output.o
IDMan_StMemset                                    output.o
IDMan_StReadSetData                               output.o
IDMan_StStrcat                                    output.o
IDMan_StStrchr                                    output.o
IDMan_StStrcmp                                    output.o
IDMan_StStrcpy                                    output.o
IDMan_StStrlen                                    output.o
IDMan_generateSignature                           output.o
IDMan_generateSignatureByIndex                    output.o
IDMan_getCertificate                              output.o
IDMan_getCertificateByIndex                       output.o
IDMan_getMemoryFree                               output.o
IDMan_getStaticPassword                           output.o
IDMan_userAuthPKCS11                              output.o
IDMan_userAuthPKCS11ByIndex                       output.o
IDMan_verifySignature                             output.o
IDMan_verifySignatureByIndex                      output.o
IFDHCloseChannel                                  output.o
IFDHControl                                       output.o
IFDHCreateChannel                                 output.o
IFDHGetCapabilities                               output.o
IFDHICCPresence                                   output.o
IFDHPowerICC                                      output.o
IFDHSetProtocolParameters                         output.o
IFDHTransmitToICC                                 output.o
ISSUING_DIST_POINT_free                           output.o
ISSUING_DIST_POINT_it                             output.o
ISSUING_DIST_POINT_new                            output.o
InitCryptoLibrary                                 output.o
InitLeaderCardProtocol                            output.o
InternalAuth                                      output.o
LONG_it                                           output.o
MD4_Final                                         output.o
MD4_Init                                          output.o
MD4_Transform                                     output.o
MD4_Update                                        output.o
MD4_version                                       output.o
MD5_Final                                         output.o
MD5_Init                                          output.o
MD5_Transform                                     output.o
MD5_Update                                        output.o
MD5_version                                       output.o
NAME_CONSTRAINTS_check                            output.o
NAME_CONSTRAINTS_free                             output.o
NAME_CONSTRAINTS_it                               output.o
NAME_CONSTRAINTS_new                              output.o
NCONF_WIN32                                       output.o
NCONF_default                                     output.o
NCONF_dump_bio                                    output.o
NCONF_free                                        output.o
NCONF_free_data                                   output.o
NCONF_get_number_e                                output.o
NCONF_get_section                                 output.o
NCONF_get_string                                  output.o
NCONF_load                                        output.o
NCONF_load_bio                                    output.o
NCONF_new                                         output.o
NETSCAPE_SPKAC_free                               output.o
NETSCAPE_SPKAC_it                                 output.o
NETSCAPE_SPKAC_new                                output.o
NETSCAPE_SPKI_free                                output.o
NETSCAPE_SPKI_it                                  output.o
NETSCAPE_SPKI_new                                 output.o
NETSCAPE_SPKI_sign                                output.o
NETSCAPE_SPKI_verify                              output.o
NOTICEREF_free                                    output.o
NOTICEREF_it                                      output.o
NOTICEREF_new                                     output.o
OBJ_NAME_add                                      output.o
OBJ_NAME_cleanup                                  output.o
OBJ_NAME_do_all                                   output.o
OBJ_NAME_do_all_sorted                            output.o
OBJ_NAME_get                                      output.o
OBJ_NAME_init                                     output.o
OBJ_NAME_new_index                                output.o
OBJ_NAME_remove                                   output.o
OBJ_add_object                                    output.o
OBJ_add_sigid                                     output.o
OBJ_bsearch_                                      output.o
OBJ_bsearch_ex_                                   output.o
OBJ_cleanup                                       output.o
OBJ_cmp                                           output.o
OBJ_create                                        output.o
OBJ_create_objects                                output.o
OBJ_dup                                           output.o
OBJ_find_sigid_algs                               output.o
OBJ_find_sigid_by_algs                            output.o
OBJ_ln2nid                                        output.o
OBJ_new_nid                                       output.o
OBJ_nid2ln                                        output.o
OBJ_nid2obj                                       output.o
OBJ_nid2sn                                        output.o
OBJ_obj2nid                                       output.o
OBJ_obj2txt                                       output.o
OBJ_sigid_free                                    output.o
OBJ_sn2nid                                        output.o
OBJ_txt2nid                                       output.o
OBJ_txt2obj                                       output.o
OCSP_BASICRESP_free                               output.o
OCSP_BASICRESP_it                                 output.o
OCSP_BASICRESP_new                                output.o
OCSP_CERTID_free                                  output.o
OCSP_CERTID_it                                    output.o
OCSP_CERTID_new                                   output.o
OCSP_CERTSTATUS_free                              output.o
OCSP_CERTSTATUS_it                                output.o
OCSP_CERTSTATUS_new                               output.o
OCSP_CRLID_free                                   output.o
OCSP_CRLID_it                                     output.o
OCSP_CRLID_new                                    output.o
OCSP_ONEREQ_free                                  output.o
OCSP_ONEREQ_it                                    output.o
OCSP_ONEREQ_new                                   output.o
OCSP_REQINFO_free                                 output.o
OCSP_REQINFO_it                                   output.o
OCSP_REQINFO_new                                  output.o
OCSP_REQUEST_free                                 output.o
OCSP_REQUEST_it                                   output.o
OCSP_REQUEST_new                                  output.o
OCSP_RESPBYTES_free                               output.o
OCSP_RESPBYTES_it                                 output.o
OCSP_RESPBYTES_new                                output.o
OCSP_RESPDATA_free                                output.o
OCSP_RESPDATA_it                                  output.o
OCSP_RESPDATA_new                                 output.o
OCSP_RESPID_free                                  output.o
OCSP_RESPID_it                                    output.o
OCSP_RESPID_new                                   output.o
OCSP_RESPONSE_free                                output.o
OCSP_RESPONSE_it                                  output.o
OCSP_RESPONSE_new                                 output.o
OCSP_REVOKEDINFO_free                             output.o
OCSP_REVOKEDINFO_it                               output.o
OCSP_REVOKEDINFO_new                              output.o
OCSP_SERVICELOC_free                              output.o
OCSP_SERVICELOC_it                                output.o
OCSP_SERVICELOC_new                               output.o
OCSP_SIGNATURE_free                               output.o
OCSP_SIGNATURE_it                                 output.o
OCSP_SIGNATURE_new                                output.o
OCSP_SINGLERESP_free                              output.o
OCSP_SINGLERESP_it                                output.o
OCSP_SINGLERESP_new                               output.o
OPENSSL_NONPIC_relocated                          output.o
OPENSSL_asc2uni                                   output.o
OPENSSL_cleanse                                   output.o
OPENSSL_cpuid_setup                               output.o
OPENSSL_gmtime                                    output.o
OPENSSL_gmtime_adj                                output.o
OPENSSL_ia32cap_P                                 output.o
OPENSSL_ia32cap_loc                               output.o
OPENSSL_isservice                                 output.o
OPENSSL_showfatal                                 output.o
OPENSSL_stderr                                    output.o
OPENSSL_uni2asc                                   output.o
OSSL_DES_version                                  output.o
OSSL_libdes_version                               output.o
OTHERNAME_cmp                                     output.o
OTHERNAME_free                                    output.o
OTHERNAME_it                                      output.o
OTHERNAME_new                                     output.o
OpenSSLDie                                        output.o
OpenSSL_add_all_ciphers                           output.o
OpenSSL_add_all_digests                           output.o
OpenUSB                                           output.o
PBE2PARAM_free                                    output.o
PBE2PARAM_it                                      output.o
PBE2PARAM_new                                     output.o
PBEPARAM_free                                     output.o
PBEPARAM_it                                       output.o
PBEPARAM_new                                      output.o
PBKDF2PARAM_free                                  output.o
PBKDF2PARAM_it                                    output.o
PBKDF2PARAM_new                                   output.o
PEM_ASN1_read_bio                                 output.o
PEM_ASN1_write_bio                                output.o
PEM_bytes_read_bio                                output.o
PEM_def_callback                                  output.o
PEM_dek_info                                      output.o
PEM_do_header                                     output.o
PEM_get_EVP_CIPHER_INFO                           output.o
PEM_proc_type                                     output.o
PEM_read_bio                                      output.o
PEM_read_bio_CMS                                  output.o
PEM_version                                       output.o
PEM_write_bio                                     output.o
PEM_write_bio_ASN1_stream                         output.o
PEM_write_bio_CMS                                 output.o
PEM_write_bio_CMS_stream                          output.o
PHGetProtocol                                     output.o
PHSetProtocol                                     output.o
PKCS12_AUTHSAFES_it                               output.o
PKCS12_BAGS_free                                  output.o
PKCS12_BAGS_it                                    output.o
PKCS12_BAGS_new                                   output.o
PKCS12_MAC_DATA_free                              output.o
PKCS12_MAC_DATA_it                                output.o
PKCS12_MAC_DATA_new                               output.o
PKCS12_MAKE_KEYBAG                                output.o
PKCS12_MAKE_SHKEYBAG                              output.o
PKCS12_PBE_add                                    output.o
PKCS12_PBE_keyivgen                               output.o
PKCS12_SAFEBAGS_it                                output.o
PKCS12_SAFEBAG_free                               output.o
PKCS12_SAFEBAG_it                                 output.o
PKCS12_SAFEBAG_new                                output.o
PKCS12_certbag2x509                               output.o
PKCS12_certbag2x509crl                            output.o
PKCS12_decrypt_skey                               output.o
PKCS12_free                                       output.o
PKCS12_it                                         output.o
PKCS12_item_decrypt_d2i                           output.o
PKCS12_item_i2d_encrypt                           output.o
PKCS12_item_pack_safebag                          output.o
PKCS12_key_gen_asc                                output.o
PKCS12_key_gen_uni                                output.o
PKCS12_new                                        output.o
PKCS12_pack_authsafes                             output.o
PKCS12_pack_p7data                                output.o
PKCS12_pack_p7encdata                             output.o
PKCS12_pbe_crypt                                  output.o
PKCS12_unpack_authsafes                           output.o
PKCS12_unpack_p7data                              output.o
PKCS12_unpack_p7encdata                           output.o
PKCS12_x5092certbag                               output.o
PKCS12_x509crl2certbag                            output.o
PKCS1_MGF1                                        output.o
PKCS5_PBE_add                                     output.o
PKCS5_PBE_keyivgen                                output.o
PKCS5_PBKDF2_HMAC                                 output.o
PKCS5_PBKDF2_HMAC_SHA1                            output.o
PKCS5_pbe2_set                                    output.o
PKCS5_pbe2_set_iv                                 output.o
PKCS5_pbe_set                                     output.o
PKCS5_pbe_set0_algor                              output.o
PKCS5_v2_PBE_keyivgen                             output.o
PKCS7_ATTR_SIGN_it                                output.o
PKCS7_ATTR_VERIFY_it                              output.o
PKCS7_DIGEST_free                                 output.o
PKCS7_DIGEST_it                                   output.o
PKCS7_DIGEST_new                                  output.o
PKCS7_ENCRYPT_free                                output.o
PKCS7_ENCRYPT_it                                  output.o
PKCS7_ENCRYPT_new                                 output.o
PKCS7_ENC_CONTENT_free                            output.o
PKCS7_ENC_CONTENT_it                              output.o
PKCS7_ENC_CONTENT_new                             output.o
PKCS7_ENVELOPE_free                               output.o
PKCS7_ENVELOPE_it                                 output.o
PKCS7_ENVELOPE_new                                output.o
PKCS7_ISSUER_AND_SERIAL_digest                    output.o
PKCS7_ISSUER_AND_SERIAL_free                      output.o
PKCS7_ISSUER_AND_SERIAL_it                        output.o
PKCS7_ISSUER_AND_SERIAL_new                       output.o
PKCS7_RECIP_INFO_free                             output.o
PKCS7_RECIP_INFO_get0_alg                         output.o
PKCS7_RECIP_INFO_it                               output.o
PKCS7_RECIP_INFO_new                              output.o
PKCS7_RECIP_INFO_set                              output.o
PKCS7_SIGNED_free                                 output.o
PKCS7_SIGNED_it                                   output.o
PKCS7_SIGNED_new                                  output.o
PKCS7_SIGNER_INFO_free                            output.o
PKCS7_SIGNER_INFO_get0_algs                       output.o
PKCS7_SIGNER_INFO_it                              output.o
PKCS7_SIGNER_INFO_new                             output.o
PKCS7_SIGNER_INFO_set                             output.o
PKCS7_SIGNER_INFO_sign                            output.o
PKCS7_SIGN_ENVELOPE_free                          output.o
PKCS7_SIGN_ENVELOPE_it                            output.o
PKCS7_SIGN_ENVELOPE_new                           output.o
PKCS7_add0_attrib_signing_time                    output.o
PKCS7_add1_attrib_digest                          output.o
PKCS7_add_attrib_content_type                     output.o
PKCS7_add_attrib_smimecap                         output.o
PKCS7_add_attribute                               output.o
PKCS7_add_certificate                             output.o
PKCS7_add_crl                                     output.o
PKCS7_add_recipient                               output.o
PKCS7_add_recipient_info                          output.o
PKCS7_add_signature                               output.o
PKCS7_add_signed_attribute                        output.o
PKCS7_add_signer                                  output.o
PKCS7_cert_from_signer_info                       output.o
PKCS7_content_new                                 output.o
PKCS7_ctrl                                        output.o
PKCS7_dataDecode                                  output.o
PKCS7_dataFinal                                   output.o
PKCS7_dataInit                                    output.o
PKCS7_dataVerify                                  output.o
PKCS7_digest_from_attributes                      output.o
PKCS7_dup                                         output.o
PKCS7_free                                        output.o
PKCS7_get_attribute                               output.o
PKCS7_get_issuer_and_serial                       output.o
PKCS7_get_signed_attribute                        output.o
PKCS7_get_signer_info                             output.o
PKCS7_get_smimecap                                output.o
PKCS7_it                                          output.o
PKCS7_new                                         output.o
PKCS7_print_ctx                                   output.o
PKCS7_set0_type_other                             output.o
PKCS7_set_attributes                              output.o
PKCS7_set_cipher                                  output.o
PKCS7_set_content                                 output.o
PKCS7_set_digest                                  output.o
PKCS7_set_signed_attributes                       output.o
PKCS7_set_type                                    output.o
PKCS7_signatureVerify                             output.o
PKCS7_simple_smimecap                             output.o
PKCS7_stream                                      output.o
PKCS8_PRIV_KEY_INFO_free                          output.o
PKCS8_PRIV_KEY_INFO_it                            output.o
PKCS8_PRIV_KEY_INFO_new                           output.o
PKCS8_decrypt                                     output.o
PKCS8_encrypt                                     output.o
PKCS8_pkey_get0                                   output.o
PKCS8_pkey_set0                                   output.o
PKCS8_set_broken                                  output.o
PKEY_USAGE_PERIOD_free                            output.o
PKEY_USAGE_PERIOD_it                              output.o
PKEY_USAGE_PERIOD_new                             output.o
POLICYINFO_free                                   output.o
POLICYINFO_it                                     output.o
POLICYINFO_new                                    output.o
POLICYQUALINFO_free                               output.o
POLICYQUALINFO_it                                 output.o
POLICYQUALINFO_new                                output.o
POLICY_CONSTRAINTS_free                           output.o
POLICY_CONSTRAINTS_it                             output.o
POLICY_CONSTRAINTS_new                            output.o
POLICY_MAPPINGS_it                                output.o
POLICY_MAPPING_free                               output.o
POLICY_MAPPING_it                                 output.o
POLICY_MAPPING_new                                output.o
PROXY_CERT_INFO_EXTENSION_free                    output.o
PROXY_CERT_INFO_EXTENSION_it                      output.o
PROXY_CERT_INFO_EXTENSION_new                     output.o
PROXY_POLICY_free                                 output.o
PROXY_POLICY_it                                   output.o
PROXY_POLICY_new                                  output.o
PowerOff                                          output.o
PowerOn                                           output.o
RAND_SSLeay                                       output.o
RAND_add                                          output.o
RAND_bytes                                        output.o
RAND_cleanup                                      output.o
RAND_get_rand_method                              output.o
RAND_poll                                         output.o
RAND_pseudo_bytes                                 output.o
RAND_seed                                         output.o
RAND_set_rand_method                              output.o
RAND_status                                       output.o
RAND_version                                      output.o
RC2_cbc_encrypt                                   output.o
RC2_cfb64_encrypt                                 output.o
RC2_decrypt                                       output.o
RC2_ecb_encrypt                                   output.o
RC2_encrypt                                       output.o
RC2_ofb64_encrypt                                 output.o
RC2_set_key                                       output.o
RC2_version                                       output.o
RC4                                               output.o
RC4_options                                       output.o
RC4_set_key                                       output.o
RC4_version                                       output.o
RFAddReader                                       output.o
RFCheckReaderEventState                           output.o
RFReaderInfoById                                  output.o
RFRemoveReader                                    output.o
RIPEMD160_Final                                   output.o
RIPEMD160_Init                                    output.o
RIPEMD160_Transform                               output.o
RIPEMD160_Update                                  output.o
RMD160_version                                    output.o
RSAPrivateKey_dup                                 output.o
RSAPrivateKey_it                                  output.o
RSAPublicKey_dup                                  output.o
RSAPublicKey_it                                   output.o
RSA_PKCS1_SSLeay                                  output.o
RSA_X931_hash_id                                  output.o
RSA_blinding_off                                  output.o
RSA_blinding_on                                   output.o
RSA_flags                                         output.o
RSA_free                                          output.o
RSA_generate_key                                  output.o
RSA_generate_key_ex                               output.o
RSA_get_default_method                            output.o
RSA_get_ex_data                                   output.o
RSA_get_ex_new_index                              output.o
RSA_get_method                                    output.o
RSA_memory_lock                                   output.o
RSA_new                                           output.o
RSA_new_method                                    output.o
RSA_padding_add_PKCS1_OAEP                        output.o
RSA_padding_add_PKCS1_PSS                         output.o
RSA_padding_add_PKCS1_type_1                      output.o
RSA_padding_add_PKCS1_type_2                      output.o
RSA_padding_add_SSLv23                            output.o
RSA_padding_add_X931                              output.o
RSA_padding_add_none                              output.o
RSA_padding_check_PKCS1_OAEP                      output.o
RSA_padding_check_PKCS1_type_1                    output.o
RSA_padding_check_PKCS1_type_2                    output.o
RSA_padding_check_SSLv23                          output.o
RSA_padding_check_X931                            output.o
RSA_padding_check_none                            output.o
RSA_private_decrypt                               output.o
RSA_private_encrypt                               output.o
RSA_public_decrypt                                output.o
RSA_public_encrypt                                output.o
RSA_set_default_method                            output.o
RSA_set_ex_data                                   output.o
RSA_set_method                                    output.o
RSA_setup_blinding                                output.o
RSA_sign                                          output.o
RSA_size                                          output.o
RSA_up_ref                                        output.o
RSA_verify                                        output.o
RSA_verify_PKCS1_PSS                              output.o
RSA_version                                       output.o
ReadBinary                                        output.o
ReadDataT0                                        output.o
ReadUSB                                           output.o
ReceiveReply                                      output.o
SCardBeginTransaction                             output.o
SCardConnect                                      output.o
SCardDisconnect                                   output.o
SCardEndTransaction                               output.o
SCardEstablishContext                             output.o
SCardListReaders                                  output.o
SCardReleaseContext                               output.o
SCardStatus                                       output.o
SCardTransmit                                     output.o
SHA1_Final                                        output.o
SHA1_Init                                         output.o
SHA1_Transform                                    output.o
SHA1_Update                                       output.o
SHA1_version                                      output.o
SHA224                                            output.o
SHA224_Final                                      output.o
SHA224_Init                                       output.o
SHA224_Update                                     output.o
SHA256                                            output.o
SHA256_Final                                      output.o
SHA256_Init                                       output.o
SHA256_Transform                                  output.o
SHA256_Update                                     output.o
SHA256_version                                    output.o
SHA384                                            output.o
SHA384_Final                                      output.o
SHA384_Init                                       output.o
SHA384_Update                                     output.o
SHA512                                            output.o
SHA512_Final                                      output.o
SHA512_Init                                       output.o
SHA512_Transform                                  output.o
SHA512_Update                                     output.o
SHA512_version                                    output.o
SHA_Final                                         output.o
SHA_Init                                          output.o
SHA_Transform                                     output.o
SHA_Update                                        output.o
SHA_version                                       output.o
SMIME_crlf_copy                                   output.o
SMIME_read_ASN1                                   output.o
SMIME_read_CMS                                    output.o
SMIME_text                                        output.o
SMIME_write_ASN1                                  output.o
SMIME_write_CMS                                   output.o
STACK_version                                     output.o
SXNETID_free                                      output.o
SXNETID_it                                        output.o
SXNETID_new                                       output.o
SXNET_add_id_INTEGER                              output.o
SXNET_add_id_asc                                  output.o
SXNET_add_id_ulong                                output.o
SXNET_free                                        output.o
SXNET_get_id_INTEGER                              output.o
SXNET_get_id_asc                                  output.o
SXNET_get_id_ulong                                output.o
SXNET_it                                          output.o
SXNET_new                                         output.o
SelectFileDF                                      output.o
SelectFileEF                                      output.o
SetATR                                            output.o
SetElem                                           output.o
SetLength                                         output.o
StIsdigit                                         output.o
StIsspace                                         output.o
T0XfrBlockCHAR                                    output.o
T0XfrBlockTPDU                                    output.o
T1NegociateIFSD                                   output.o
T1XfrBlockExtendedAPDU                            output.o
T1XfrBlockTPDU                                    output.o
TransHex2Tex                                      output.o
TransTex2Hex                                      output.o
TransmitCommand                                   output.o
TransmitPPS                                       output.o
UI_OpenSSL                                        output.o
UI_add_error_string                               output.o
UI_add_info_string                                output.o
UI_add_input_boolean                              output.o
UI_add_input_string                               output.o
UI_add_user_data                                  output.o
UI_add_verify_string                              output.o
UI_construct_prompt                               output.o
UI_create_method                                  output.o
UI_ctrl                                           output.o
UI_destroy_method                                 output.o
UI_dup_error_string                               output.o
UI_dup_info_string                                output.o
UI_dup_input_boolean                              output.o
UI_dup_input_string                               output.o
UI_dup_verify_string                              output.o
UI_free                                           output.o
UI_get0_action_string                             output.o
UI_get0_output_string                             output.o
UI_get0_result                                    output.o
UI_get0_result_string                             output.o
UI_get0_test_string                               output.o
UI_get0_user_data                                 output.o
UI_get_default_method                             output.o
UI_get_ex_data                                    output.o
UI_get_ex_new_index                               output.o
UI_get_input_flags                                output.o
UI_get_method                                     output.o
UI_get_result_maxsize                             output.o
UI_get_result_minsize                             output.o
UI_get_string_type                                output.o
UI_method_get_closer                              output.o
UI_method_get_flusher                             output.o
UI_method_get_opener                              output.o
UI_method_get_prompt_constructor                  output.o
UI_method_get_reader                              output.o
UI_method_get_writer                              output.o
UI_method_set_closer                              output.o
UI_method_set_flusher                             output.o
UI_method_set_opener                              output.o
UI_method_set_prompt_constructor                  output.o
UI_method_set_reader                              output.o
UI_method_set_writer                              output.o
UI_new                                            output.o
UI_new_method                                     output.o
UI_process                                        output.o
UI_set_default_method                             output.o
UI_set_ex_data                                    output.o
UI_set_method                                     output.o
UI_set_result                                     output.o
USERNOTICE_free                                   output.o
USERNOTICE_it                                     output.o
USERNOTICE_new                                    output.o
UTF8_getc                                         output.o
UTF8_putc                                         output.o
UpdateBinary                                      output.o
Verify                                            output.o
WHIRLPOOL                                         output.o
WHIRLPOOL_BitUpdate                               output.o
WHIRLPOOL_Final                                   output.o
WHIRLPOOL_Init                                    output.o
WHIRLPOOL_Update                                  output.o
WriteUSB                                          output.o
X509V3_EXT_CRL_add_conf                           output.o
X509V3_EXT_CRL_add_nconf                          output.o
X509V3_EXT_REQ_add_conf                           output.o
X509V3_EXT_REQ_add_nconf                          output.o
X509V3_EXT_add                                    output.o
X509V3_EXT_add_alias                              output.o
X509V3_EXT_add_conf                               output.o
X509V3_EXT_add_list                               output.o
X509V3_EXT_add_nconf                              output.o
X509V3_EXT_add_nconf_sk                           output.o
X509V3_EXT_cleanup                                output.o
X509V3_EXT_conf                                   output.o
X509V3_EXT_conf_nid                               output.o
X509V3_EXT_d2i                                    output.o
X509V3_EXT_get                                    output.o
X509V3_EXT_get_nid                                output.o
X509V3_EXT_i2d                                    output.o
X509V3_EXT_nconf                                  output.o
X509V3_EXT_nconf_nid                              output.o
X509V3_EXT_print                                  output.o
X509V3_EXT_val_prn                                output.o
X509V3_NAME_from_section                          output.o
X509V3_add1_i2d                                   output.o
X509V3_add_standard_extensions                    output.o
X509V3_add_value                                  output.o
X509V3_add_value_bool                             output.o
X509V3_add_value_bool_nf                          output.o
X509V3_add_value_int                              output.o
X509V3_add_value_uchar                            output.o
X509V3_conf_free                                  output.o
X509V3_extensions_print                           output.o
X509V3_get_d2i                                    output.o
X509V3_get_section                                output.o
X509V3_get_string                                 output.o
X509V3_get_value_bool                             output.o
X509V3_get_value_int                              output.o
X509V3_parse_list                                 output.o
X509V3_section_free                               output.o
X509V3_set_conf_lhash                             output.o
X509V3_set_ctx                                    output.o
X509V3_set_nconf                                  output.o
X509V3_string_free                                output.o
X509_ALGORS_it                                    output.o
X509_ALGOR_dup                                    output.o
X509_ALGOR_free                                   output.o
X509_ALGOR_get0                                   output.o
X509_ALGOR_it                                     output.o
X509_ALGOR_new                                    output.o
X509_ALGOR_set0                                   output.o
X509_ATTRIBUTE_SET_it                             output.o
X509_ATTRIBUTE_count                              output.o
X509_ATTRIBUTE_create                             output.o
X509_ATTRIBUTE_create_by_NID                      output.o
X509_ATTRIBUTE_create_by_OBJ                      output.o
X509_ATTRIBUTE_create_by_txt                      output.o
X509_ATTRIBUTE_dup                                output.o
X509_ATTRIBUTE_free                               output.o
X509_ATTRIBUTE_get0_data                          output.o
X509_ATTRIBUTE_get0_object                        output.o
X509_ATTRIBUTE_get0_type                          output.o
X509_ATTRIBUTE_it                                 output.o
X509_ATTRIBUTE_new                                output.o
X509_ATTRIBUTE_set1_data                          output.o
X509_ATTRIBUTE_set1_object                        output.o
X509_CERT_AUX_free                                output.o
X509_CERT_AUX_it                                  output.o
X509_CERT_AUX_new                                 output.o
X509_CERT_AUX_print                               output.o
X509_CERT_PAIR_free                               output.o
X509_CERT_PAIR_it                                 output.o
X509_CERT_PAIR_new                                output.o
X509_CINF_free                                    output.o
X509_CINF_it                                      output.o
X509_CINF_new                                     output.o
X509_CRL_INFO_free                                output.o
X509_CRL_INFO_it                                  output.o
X509_CRL_INFO_new                                 output.o
X509_CRL_METHOD_free                              output.o
X509_CRL_METHOD_new                               output.o
X509_CRL_add0_revoked                             output.o
X509_CRL_add1_ext_i2d                             output.o
X509_CRL_add_ext                                  output.o
X509_CRL_cmp                                      output.o
X509_CRL_delete_ext                               output.o
X509_CRL_digest                                   output.o
X509_CRL_dup                                      output.o
X509_CRL_free                                     output.o
X509_CRL_get0_by_cert                             output.o
X509_CRL_get0_by_serial                           output.o
X509_CRL_get_ext                                  output.o
X509_CRL_get_ext_by_NID                           output.o
X509_CRL_get_ext_by_OBJ                           output.o
X509_CRL_get_ext_by_critical                      output.o
X509_CRL_get_ext_count                            output.o
X509_CRL_get_ext_d2i                              output.o
X509_CRL_get_meth_data                            output.o
X509_CRL_it                                       output.o
X509_CRL_match                                    output.o
X509_CRL_new                                      output.o
X509_CRL_set_default_method                       output.o
X509_CRL_set_meth_data                            output.o
X509_CRL_sign                                     output.o
X509_CRL_verify                                   output.o
X509_EXTENSIONS_it                                output.o
X509_EXTENSION_create_by_NID                      output.o
X509_EXTENSION_create_by_OBJ                      output.o
X509_EXTENSION_dup                                output.o
X509_EXTENSION_free                               output.o
X509_EXTENSION_get_critical                       output.o
X509_EXTENSION_get_data                           output.o
X509_EXTENSION_get_object                         output.o
X509_EXTENSION_it                                 output.o
X509_EXTENSION_new                                output.o
X509_EXTENSION_set_critical                       output.o
X509_EXTENSION_set_data                           output.o
X509_EXTENSION_set_object                         output.o
X509_LOOKUP_by_alias                              output.o
X509_LOOKUP_by_fingerprint                        output.o
X509_LOOKUP_by_issuer_serial                      output.o
X509_LOOKUP_by_subject                            output.o
X509_LOOKUP_ctrl                                  output.o
X509_LOOKUP_free                                  output.o
X509_LOOKUP_init                                  output.o
X509_LOOKUP_new                                   output.o
X509_LOOKUP_shutdown                              output.o
X509_NAME_ENTRIES_it                              output.o
X509_NAME_ENTRY_create_by_NID                     output.o
X509_NAME_ENTRY_create_by_OBJ                     output.o
X509_NAME_ENTRY_create_by_txt                     output.o
X509_NAME_ENTRY_dup                               output.o
X509_NAME_ENTRY_free                              output.o
X509_NAME_ENTRY_get_data                          output.o
X509_NAME_ENTRY_get_object                        output.o
X509_NAME_ENTRY_it                                output.o
X509_NAME_ENTRY_new                               output.o
X509_NAME_ENTRY_set_data                          output.o
X509_NAME_ENTRY_set_object                        output.o
X509_NAME_INTERNAL_it                             output.o
X509_NAME_add_entry                               output.o
X509_NAME_add_entry_by_NID                        output.o
X509_NAME_add_entry_by_OBJ                        output.o
X509_NAME_add_entry_by_txt                        output.o
X509_NAME_cmp                                     output.o
X509_NAME_delete_entry                            output.o
X509_NAME_digest                                  output.o
X509_NAME_dup                                     output.o
X509_NAME_entry_count                             output.o
X509_NAME_free                                    output.o
X509_NAME_get_entry                               output.o
X509_NAME_get_index_by_NID                        output.o
X509_NAME_get_index_by_OBJ                        output.o
X509_NAME_get_text_by_NID                         output.o
X509_NAME_get_text_by_OBJ                         output.o
X509_NAME_hash                                    output.o
X509_NAME_hash_old                                output.o
X509_NAME_it                                      output.o
X509_NAME_new                                     output.o
X509_NAME_oneline                                 output.o
X509_NAME_print                                   output.o
X509_NAME_print_ex                                output.o
X509_NAME_set                                     output.o
X509_OBJECT_free_contents                         output.o
X509_OBJECT_idx_by_subject                        output.o
X509_OBJECT_retrieve_by_subject                   output.o
X509_OBJECT_retrieve_match                        output.o
X509_OBJECT_up_ref_count                          output.o
X509_POLICY_NODE_print                            output.o
X509_PUBKEY_free                                  output.o
X509_PUBKEY_get                                   output.o
X509_PUBKEY_get0_param                            output.o
X509_PUBKEY_it                                    output.o
X509_PUBKEY_new                                   output.o
X509_PUBKEY_set                                   output.o
X509_PUBKEY_set0_param                            output.o
X509_PURPOSE_add                                  output.o
X509_PURPOSE_cleanup                              output.o
X509_PURPOSE_get0                                 output.o
X509_PURPOSE_get0_name                            output.o
X509_PURPOSE_get0_sname                           output.o
X509_PURPOSE_get_by_id                            output.o
X509_PURPOSE_get_by_sname                         output.o
X509_PURPOSE_get_count                            output.o
X509_PURPOSE_get_id                               output.o
X509_PURPOSE_get_trust                            output.o
X509_PURPOSE_set                                  output.o
X509_REQ_INFO_free                                output.o
X509_REQ_INFO_it                                  output.o
X509_REQ_INFO_new                                 output.o
X509_REQ_add1_attr                                output.o
X509_REQ_add1_attr_by_NID                         output.o
X509_REQ_add1_attr_by_OBJ                         output.o
X509_REQ_add1_attr_by_txt                         output.o
X509_REQ_add_extensions                           output.o
X509_REQ_add_extensions_nid                       output.o
X509_REQ_check_private_key                        output.o
X509_REQ_delete_attr                              output.o
X509_REQ_digest                                   output.o
X509_REQ_dup                                      output.o
X509_REQ_extension_nid                            output.o
X509_REQ_free                                     output.o
X509_REQ_get1_email                               output.o
X509_REQ_get_attr                                 output.o
X509_REQ_get_attr_by_NID                          output.o
X509_REQ_get_attr_by_OBJ                          output.o
X509_REQ_get_attr_count                           output.o
X509_REQ_get_extension_nids                       output.o
X509_REQ_get_extensions                           output.o
X509_REQ_get_pubkey                               output.o
X509_REQ_it                                       output.o
X509_REQ_new                                      output.o
X509_REQ_set_extension_nids                       output.o
X509_REQ_set_pubkey                               output.o
X509_REQ_set_subject_name                         output.o
X509_REQ_set_version                              output.o
X509_REQ_sign                                     output.o
X509_REQ_verify                                   output.o
X509_REVOKED_add1_ext_i2d                         output.o
X509_REVOKED_add_ext                              output.o
X509_REVOKED_delete_ext                           output.o
X509_REVOKED_free                                 output.o
X509_REVOKED_get_ext                              output.o
X509_REVOKED_get_ext_by_NID                       output.o
X509_REVOKED_get_ext_by_OBJ                       output.o
X509_REVOKED_get_ext_by_critical                  output.o
X509_REVOKED_get_ext_count                        output.o
X509_REVOKED_get_ext_d2i                          output.o
X509_REVOKED_it                                   output.o
X509_REVOKED_new                                  output.o
X509_SIG_free                                     output.o
X509_SIG_it                                       output.o
X509_SIG_new                                      output.o
X509_STORE_CTX_cleanup                            output.o
X509_STORE_CTX_free                               output.o
X509_STORE_CTX_get0_current_crl                   output.o
X509_STORE_CTX_get0_current_issuer                output.o
X509_STORE_CTX_get0_param                         output.o
X509_STORE_CTX_get0_parent_ctx                    output.o
X509_STORE_CTX_get0_policy_tree                   output.o
X509_STORE_CTX_get1_chain                         output.o
X509_STORE_CTX_get1_issuer                        output.o
X509_STORE_CTX_get_chain                          output.o
X509_STORE_CTX_get_current_cert                   output.o
X509_STORE_CTX_get_error                          output.o
X509_STORE_CTX_get_error_depth                    output.o
X509_STORE_CTX_get_ex_data                        output.o
X509_STORE_CTX_get_ex_new_index                   output.o
X509_STORE_CTX_get_explicit_policy                output.o
X509_STORE_CTX_init                               output.o
X509_STORE_CTX_new                                output.o
X509_STORE_CTX_purpose_inherit                    output.o
X509_STORE_CTX_set0_crls                          output.o
X509_STORE_CTX_set0_param                         output.o
X509_STORE_CTX_set_cert                           output.o
X509_STORE_CTX_set_chain                          output.o
X509_STORE_CTX_set_default                        output.o
X509_STORE_CTX_set_depth                          output.o
X509_STORE_CTX_set_error                          output.o
X509_STORE_CTX_set_ex_data                        output.o
X509_STORE_CTX_set_flags                          output.o
X509_STORE_CTX_set_purpose                        output.o
X509_STORE_CTX_set_time                           output.o
X509_STORE_CTX_set_trust                          output.o
X509_STORE_CTX_set_verify_cb                      output.o
X509_STORE_CTX_trusted_stack                      output.o
X509_STORE_add_cert                               output.o
X509_STORE_add_crl                                output.o
X509_STORE_add_lookup                             output.o
X509_STORE_free                                   output.o
X509_STORE_get1_certs                             output.o
X509_STORE_get1_crls                              output.o
X509_STORE_get_by_subject                         output.o
X509_STORE_new                                    output.o
X509_STORE_set1_param                             output.o
X509_STORE_set_depth                              output.o
X509_STORE_set_flags                              output.o
X509_STORE_set_purpose                            output.o
X509_STORE_set_trust                              output.o
X509_STORE_set_verify_cb                          output.o
X509_TRUST_add                                    output.o
X509_TRUST_cleanup                                output.o
X509_TRUST_get0                                   output.o
X509_TRUST_get0_name                              output.o
X509_TRUST_get_by_id                              output.o
X509_TRUST_get_count                              output.o
X509_TRUST_get_flags                              output.o
X509_TRUST_get_trust                              output.o
X509_TRUST_set                                    output.o
X509_TRUST_set_default                            output.o
X509_VAL_free                                     output.o
X509_VAL_it                                       output.o
X509_VAL_new                                      output.o
X509_VERIFY_PARAM_add0_policy                     output.o
X509_VERIFY_PARAM_add0_table                      output.o
X509_VERIFY_PARAM_clear_flags                     output.o
X509_VERIFY_PARAM_free                            output.o
X509_VERIFY_PARAM_get_depth                       output.o
X509_VERIFY_PARAM_get_flags                       output.o
X509_VERIFY_PARAM_inherit                         output.o
X509_VERIFY_PARAM_lookup                          output.o
X509_VERIFY_PARAM_new                             output.o
X509_VERIFY_PARAM_set1                            output.o
X509_VERIFY_PARAM_set1_name                       output.o
X509_VERIFY_PARAM_set1_policies                   output.o
X509_VERIFY_PARAM_set_depth                       output.o
X509_VERIFY_PARAM_set_flags                       output.o
X509_VERIFY_PARAM_set_purpose                     output.o
X509_VERIFY_PARAM_set_time                        output.o
X509_VERIFY_PARAM_set_trust                       output.o
X509_VERIFY_PARAM_table_cleanup                   output.o
X509_add1_ext_i2d                                 output.o
X509_add1_reject_object                           output.o
X509_add1_trust_object                            output.o
X509_add_ext                                      output.o
X509_alias_get0                                   output.o
X509_alias_set1                                   output.o
X509_check_akid                                   output.o
X509_check_ca                                     output.o
X509_check_issued                                 output.o
X509_check_private_key                            output.o
X509_check_purpose                                output.o
X509_check_trust                                  output.o
X509_cmp                                          output.o
X509_cmp_current_time                             output.o
X509_cmp_time                                     output.o
X509_delete_ext                                   output.o
X509_digest                                       output.o
X509_dup                                          output.o
X509_email_free                                   output.o
X509_find_by_issuer_and_serial                    output.o
X509_find_by_subject                              output.o
X509_free                                         output.o
X509_get0_pubkey_bitstr                           output.o
X509_get1_email                                   output.o
X509_get1_ocsp                                    output.o
X509_get_default_cert_area                        output.o
X509_get_default_cert_dir                         output.o
X509_get_default_cert_dir_env                     output.o
X509_get_default_cert_file                        output.o
X509_get_default_cert_file_env                    output.o
X509_get_default_private_dir                      output.o
X509_get_ex_data                                  output.o
X509_get_ex_new_index                             output.o
X509_get_ext                                      output.o
X509_get_ext_by_NID                               output.o
X509_get_ext_by_OBJ                               output.o
X509_get_ext_by_critical                          output.o
X509_get_ext_count                                output.o
X509_get_ext_d2i                                  output.o
X509_get_issuer_name                              output.o
X509_get_pubkey                                   output.o
X509_get_pubkey_parameters                        output.o
X509_get_serialNumber                             output.o
X509_get_subject_name                             output.o
X509_gmtime_adj                                   output.o
X509_issuer_and_serial_cmp                        output.o
X509_issuer_and_serial_hash                       output.o
X509_issuer_name_cmp                              output.o
X509_issuer_name_hash                             output.o
X509_issuer_name_hash_old                         output.o
X509_it                                           output.o
X509_keyid_get0                                   output.o
X509_keyid_set1                                   output.o
X509_new                                          output.o
X509_ocspid_print                                 output.o
X509_policy_check                                 output.o
X509_policy_level_get0_node                       output.o
X509_policy_level_node_count                      output.o
X509_policy_node_get0_parent                      output.o
X509_policy_node_get0_policy                      output.o
X509_policy_node_get0_qualifiers                  output.o
X509_policy_tree_free                             output.o
X509_policy_tree_get0_level                       output.o
X509_policy_tree_get0_policies                    output.o
X509_policy_tree_get0_user_policies               output.o
X509_policy_tree_level_count                      output.o
X509_print                                        output.o
X509_print_ex                                     output.o
X509_pubkey_digest                                output.o
X509_reject_clear                                 output.o
X509_set_ex_data                                  output.o
X509_sign                                         output.o
X509_signature_print                              output.o
X509_subject_name_cmp                             output.o
X509_subject_name_hash                            output.o
X509_subject_name_hash_old                        output.o
X509_supported_extension                          output.o
X509_time_adj                                     output.o
X509_time_adj_ex                                  output.o
X509_to_X509_REQ                                  output.o
X509_trust_clear                                  output.o
X509_verify                                       output.o
X509_verify_cert                                  output.o
X509_version                                      output.o
X509at_add1_attr                                  output.o
X509at_add1_attr_by_NID                           output.o
X509at_add1_attr_by_OBJ                           output.o
X509at_add1_attr_by_txt                           output.o
X509at_delete_attr                                output.o
X509at_get0_data_by_OBJ                           output.o
X509at_get_attr                                   output.o
X509at_get_attr_by_NID                            output.o
X509at_get_attr_by_OBJ                            output.o
X509at_get_attr_count                             output.o
X509v3_add_ext                                    output.o
X509v3_delete_ext                                 output.o
X509v3_get_ext                                    output.o
X509v3_get_ext_by_NID                             output.o
X509v3_get_ext_by_OBJ                             output.o
X509v3_get_ext_by_critical                        output.o
X509v3_get_ext_count                              output.o
X9_62_CHARACTERISTIC_TWO_free                     output.o
X9_62_CHARACTERISTIC_TWO_it                       output.o
X9_62_CHARACTERISTIC_TWO_new                      output.o
X9_62_CURVE_it                                    output.o
X9_62_FIELDID_it                                  output.o
X9_62_PENTANOMIAL_free                            output.o
X9_62_PENTANOMIAL_it                              output.o
X9_62_PENTANOMIAL_new                             output.o
ZLONG_it                                          output.o
_CONF_add_string                                  output.o
_CONF_free_data                                   output.o
_CONF_get_section                                 output.o
_CONF_get_section_values                          output.o
_CONF_get_string                                  output.o
_CONF_new_data                                    output.o
_CONF_new_section                                 output.o
__initfunc_acpi_init_global                       output.o
__initfunc_acpi_init_paral                        output.o
__initfunc_ata_init                               output.o
__initfunc_beep_init_msg                          output.o
__initfunc_bnx_init                               output.o
__initfunc_cache_init_pass                        output.o
__initfunc_cache_init_pcpu                        output.o
__initfunc_cache_init_vcpu                        output.o
__initfunc_callrealmode_init_global               output.o
__initfunc_callrealmode_panic                     output.o
__initfunc_copy_minios                            output.o
__initfunc_core_init                              output.o
__initfunc_cpu_mmu_spt_init_global                output.o
__initfunc_cpu_mmu_spt_init_pcpu                  output.o
__initfunc_cpuid_init                             output.o
__initfunc_cpuid_pass_init                        output.o
__initfunc_create_pass_vm                         output.o
__initfunc_debug_on_shift_key                     output.o
__initfunc_echoctl_init_msg                       output.o
__initfunc_ehci_init                              output.o
__initfunc_end                                    output.o
__initfunc_exint_pass_init                        output.o
__initfunc_get_shiftflags                         output.o
__initfunc_gmm_pass_init                          output.o
__initfunc_idman_init                             output.o
__initfunc_idman_init_global                      output.o
__initfunc_idman_kernel_init                      output.o
__initfunc_ieee1394_hint                          output.o
__initfunc_ieee1394_init                          output.o
__initfunc_ieee1394_thunderbolt_conceal           output.o
__initfunc_ieee1394log_init                       output.o
__initfunc_install_int0x15_hook                   output.o
__initfunc_int_init_global                        output.o
__initfunc_int_wakeup                             output.o
__initfunc_io_io_init                             output.o
__initfunc_io_iopass_init                         output.o
__initfunc_iommu_setup                            output.o
__initfunc_keyboard_init_msg                      output.o
__initfunc_localapic_init                         output.o
__initfunc_localapic_init2                        output.o
__initfunc_mm_init_global                         output.o
__initfunc_mmio_debug                             output.o
__initfunc_mmio_init                              output.o
__initfunc_msg_init_global                        output.o
__initfunc_msr_init                               output.o
__initfunc_msr_pass_init                          output.o
__initfunc_net_main_init                          output.o
__initfunc_netapi_init                            output.o
__initfunc_nmi_pass_init                          output.o
__initfunc_nmi_pass_init_pcpu                     output.o
__initfunc_panic_init_global                      output.o
__initfunc_panic_init_global3                     output.o
__initfunc_panic_init_msg                         output.o
__initfunc_panic_init_pcpu                        output.o
__initfunc_pci_conceal_init                       output.o
__initfunc_pci_init                               output.o
__initfunc_pci_match_compat_init                  output.o
__initfunc_pci_monitor_init                       output.o
__initfunc_pci_monitor_init_msg                   output.o
__initfunc_print_boot_msg                         output.o
__initfunc_printf_init_global                     output.o
__initfunc_pro100_init                            output.o
__initfunc_process_init_ap                        output.o
__initfunc_process_init_global                    output.o
__initfunc_process_wakeup                         output.o
__initfunc_random_init_config0                    output.o
__initfunc_random_init_global                     output.o
__initfunc_reboot_init_msg                        output.o
__initfunc_resume_pro1000                         output.o
__initfunc_segment_init_global                    output.o
__initfunc_serial_init_msg                        output.o
__initfunc_setiohooks                             output.o
__initfunc_sleep_init_global                      output.o
__initfunc_sleep_init_msg                         output.o
__initfunc_start                                  output.o
__initfunc_storage_io_initfunc                    output.o
__initfunc_storage_kernel_init                    output.o
__initfunc_svm_panic                              output.o
__initfunc_sx_init_pass_init                      output.o
__initfunc_thread_init_global                     output.o
__initfunc_thread_init_pcpu                       output.o
__initfunc_time_init_dbsp                         output.o
__initfunc_time_init_global                       output.o
__initfunc_time_init_global_status                output.o
__initfunc_time_init_msg                          output.o
__initfunc_time_init_pcpu                         output.o
__initfunc_time_wakeup                            output.o
__initfunc_timer_init_global                      output.o
__initfunc_tty_init_global                        output.o
__initfunc_tty_init_global2                       output.o
__initfunc_tty_init_msg                           output.o
__initfunc_uhci_init                              output.o
__initfunc_unmap_user_area                        output.o
__initfunc_update_mtrr_and_pat                    output.o
__initfunc_vcpu_init_global                       output.o
__initfunc_vga_init                               output.o
__initfunc_virtualization_init_pcpu               output.o
__initfunc_vmmcall_boot_init                      output.o
__initfunc_vmmcall_dbgsh_init                     output.o
__initfunc_vmmcall_dbgsh_init_global              output.o
__initfunc_vmmcall_iccard_init                    output.o
__initfunc_vmmcall_init                           output.o
__initfunc_vmmcall_log_init                       output.o
__initfunc_vmmcall_status_init                    output.o
__initfunc_vmmcall_status_init_global             output.o
__initfunc_vpn_pro1000_init                       output.o
__initfunc_vramwrite_init_bsp                     output.o
__initfunc_vramwrite_init_msg                     output.o
__initfunc_vt_panic                               output.o
__initfunc_vt_register_status_callback            output.o
__initfunc_wait_for_create_pass_vm                output.o
__initfunc_x540_init                              output.o
__initfunc_xhci_init                              output.o
__initfunc_xsetbv_init                            output.o
__initfunc_xsetbv_pass_init                       output.o
__process_builtin                                 output.o
__process_builtin_end                             output.o
_dprintf                                          output.o
_dprintft                                         output.o
_shadow_DES_check_key                             output.o
a2d_ASN1_OBJECT                                   output.o
a2i_ASN1_INTEGER                                  output.o
a2i_ASN1_STRING                                   output.o
a2i_GENERAL_NAME                                  output.o
a2i_IPADDRESS                                     output.o
a2i_IPADDRESS_NC                                  output.o
a2i_ipadd                                         output.o
acpi_dsdt_parse                                   output.o
acpi_dsdt_system_state                            output.o
acpi_iohook                                       output.o
acpi_poweroff                                     output.o
acpi_read_mcfg                                    output.o
acpi_reset                                        output.o
acpi_smi_hook                                     output.o
acpi_ssdt_parse                                   output.o
add_remap                                         output.o
aes_xts_init                                      output.o
ahci_config_read                                  output.o
ahci_config_write                                 output.o
ahci_new                                          output.o
alloc                                             output.o
alloc2                                            output.o
alloc_handler_descriptor                          output.o
alloc_page                                        output.o
alloc_pages                                       output.o
alloc_realmodemem                                 output.o
ap_start_addr                                     output.o
apic_available                                    output.o
apinit_lock                                       output.o
apinit_procs                                      output.o
apinitproc0                                       output.o
app_pkey_methods                                  output.o
arr                                               output.o
asm_vmlaunch_regs_32                              output.o
asm_vmlaunch_regs_64                              output.o
asm_vmresume_regs_32                              output.o
asm_vmresume_regs_64                              output.o
asm_vmrun_regs_32                                 output.o
asm_vmrun_regs_64                                 output.o
asm_vmrun_regs_nested_32                          output.o
asm_vmrun_regs_nested_64                          output.o
asn1_Finish                                       output.o
asn1_GetSequence                                  output.o
asn1_add_error                                    output.o
asn1_const_Finish                                 output.o
asn1_do_adb                                       output.o
asn1_do_lock                                      output.o
asn1_enc_free                                     output.o
asn1_enc_init                                     output.o
asn1_enc_restore                                  output.o
asn1_enc_save                                     output.o
asn1_ex_c2i                                       output.o
asn1_ex_i2c                                       output.o
asn1_get_choice_selector                          output.o
asn1_get_field_ptr                                output.o
asn1_set_choice_selector                          output.o
asn1_template_print_ctx                           output.o
assertion_failed                                  output.o
ata_ahci_mode                                     output.o
ata_bm_handle_command                             output.o
ata_bm_handle_device_specific                     output.o
ata_bm_handle_prd_table                           output.o
ata_bm_handle_status                              output.o
ata_bm_handler                                    output.o
ata_bm_handler_table                              output.o
ata_channel_lock                                  output.o
ata_channel_unlock                                output.o
ata_cmdblk_handler                                output.o
ata_cmdblk_handler_table                          output.o
ata_config_read                                   output.o
ata_config_write                                  output.o
ata_ctlblk_handler                                output.o
ata_ctlblk_handler_table                          output.o
ata_get_cmd_type                                  output.o
ata_handle_queued_status                          output.o
ata_init_io_handler                               output.o
ata_init_vendor                                   output.o
ata_set_bm_handler                                output.o
ata_set_cmdblk_handler                            output.o
ata_set_ctlblk_handler                            output.o
atapi_handle_cmd_packet                           output.o
atapi_handle_config_data                          output.o
atapi_handle_interrupt_reason                     output.o
atapi_handle_packet_data                          output.o
atapi_handle_pio_identify_packet                  output.o
auto_reboot                                       output.o
autoip_arp_reply                                  output.o
autoip_network_changed                            output.o
autoip_set_struct                                 output.o
autoip_start                                      output.o
autoip_stop                                       output.o
autoip_tmr                                        output.o
backtrace                                         output.o
beep_off                                          output.o
beep_on                                           output.o
beep_set_freq                                     output.o
bn_add_part_words                                 output.o
bn_add_words                                      output.o
bn_cmp_part_words                                 output.o
bn_cmp_words                                      output.o
bn_div_words                                      output.o
bn_dup_expand                                     output.o
bn_expand2                                        output.o
bn_mul_add_words                                  output.o
bn_mul_comba4                                     output.o
bn_mul_comba8                                     output.o
bn_mul_high                                       output.o
bn_mul_low_normal                                 output.o
bn_mul_low_recursive                              output.o
bn_mul_normal                                     output.o
bn_mul_part_recursive                             output.o
bn_mul_recursive                                  output.o
bn_mul_words                                      output.o
bn_sqr_comba4                                     output.o
bn_sqr_comba8                                     output.o
bn_sqr_normal                                     output.o
bn_sqr_recursive                                  output.o
bn_sqr_words                                      output.o
bn_sub_part_words                                 output.o
bn_sub_words                                      output.o
bss                                               output.o
c2i_ASN1_BIT_STRING                               output.o
c2i_ASN1_INTEGER                                  output.o
c2i_ASN1_OBJECT                                   output.o
cache_get_attr                                    output.o
cache_get_gmsr_amd                                output.o
cache_get_gmtrr                                   output.o
cache_get_gmtrr_attr                              output.o
cache_get_gmtrr_type                              output.o
cache_get_gmtrrcap                                output.o
cache_get_gpat                                    output.o
cache_gmtrr_type_equal                            output.o
cache_set_gmsr_amd                                output.o
cache_set_gmtrr                                   output.o
cache_set_gpat                                    output.o
call_cpuid                                        output.o
call_initfunc                                     output.o
call_io                                           output.o
call_read_msr                                     output.o
call_uefi_allocate_pages                          output.o
call_uefi_disconnect_pcidev_driver                output.o
call_uefi_free_pages                              output.o
call_uefi_get_memory_map                          output.o
call_uefi_getkey                                  output.o
call_uefi_putchar                                 output.o
call_write_msr                                    output.o
call_xsetbv                                       output.o
callfunc_and_getint                               output.o
callrealmode_bootcd_getstatus                     output.o
callrealmode_disk_readlba                         output.o
callrealmode_disk_readmbr                         output.o
callrealmode_end                                  output.o
callrealmode_endofcodeaddr                        output.o
callrealmode_getfontinfo                          output.o
callrealmode_getshiftflags                        output.o
callrealmode_getsysmemmap                         output.o
callrealmode_printmsg                             output.o
callrealmode_reboot                               output.o
callrealmode_setcursorpos                         output.o
callrealmode_setvideomode                         output.o
callrealmode_start                                output.o
callrealmode_start2                               output.o
callrealmode_startkernel32                        output.o
callrealmode_tcgbios                              output.o
callrealmode_usevcpu                              output.o
calluefi                                          output.o
calluefi_uefi_cr3                                 output.o
calluefi_uefi_gdtr                                output.o
calluefi_uefi_idtr                                output.o
calluefi_uefi_ldtr                                output.o
calluefi_uefi_sregs                               output.o
cancel_sleep                                      output.o
check_defer                                       output.o
chelp_abort                                       output.o
chelp_bsearch                                     output.o
chelp_div_64_32_32                                output.o
chelp_div_64_32_64                                output.o
chelp_free                                        output.o
chelp_inited                                      output.o
chelp_isalnum                                     output.o
chelp_isalpha                                     output.o
chelp_isdigit                                     output.o
chelp_islower                                     output.o
chelp_isspace                                     output.o
chelp_isupper                                     output.o
chelp_isxdigit                                    output.o
chelp_malloc                                      output.o
chelp_memchr                                      output.o
chelp_memcmp                                      output.o
chelp_memcpy                                      output.o
chelp_memmove                                     output.o
chelp_memset                                      output.o
chelp_mod_64_32_32                                output.o
chelp_mul_64_64_64                                output.o
chelp_print                                       output.o
chelp_printf                                      output.o
chelp_qsort                                       output.o
chelp_realloc                                     output.o
chelp_snprintf                                    output.o
chelp_sprintf                                     output.o
chelp_strcat                                      output.o
chelp_strchr                                      output.o
chelp_strcmp                                      output.o
chelp_strcpy                                      output.o
chelp_stricmp                                     output.o
chelp_strlen                                      output.o
chelp_strncasecmp                                 output.o
chelp_strncmp                                     output.o
chelp_strncpy                                     output.o
chelp_strrchr                                     output.o
chelp_strtol                                      output.o
chelp_strtoul                                     output.o
chelp_strtoul_ex                                  output.o
chelp_swap                                        output.o
chelp_tolower                                     output.o
chelp_toupper                                     output.o
cleanse_ctr                                       output.o
clflush_size                                      output.o
cmpxchg_gphys_l                                   output.o
cmpxchg_gphys_q                                   output.o
cmpxchg_hphys_l                                   output.o
cmpxchg_hphys_q                                   output.o
cms_Data_create                                   output.o
cms_DigestAlgorithm_find_ctx                      output.o
cms_DigestAlgorithm_init_bio                      output.o
cms_DigestAlgorithm_set                           output.o
cms_DigestedData_create                           output.o
cms_DigestedData_do_final                         output.o
cms_DigestedData_init_bio                         output.o
cms_EncryptedContent_init                         output.o
cms_EncryptedContent_init_bio                     output.o
cms_EncryptedData_init_bio                        output.o
cms_EnvelopedData_init_bio                        output.o
cms_SignedData_final                              output.o
cms_SignedData_init_bio                           output.o
cms_SignerIdentifier_cert_cmp                     output.o
cms_SignerIdentifier_get0_signer_id               output.o
cms_content_bio                                   output.o
cms_set1_SignerIdentifier                         output.o
code                                              output.o
codeend                                           output.o
config                                            output.o
copy_bootsector                                   output.o
copy_uefi_bootcode                                output.o
core_init                                         output.o
core_io_handle_default                            output.o
core_io_modify_handler                            output.o
core_io_register_handler                          output.o
core_io_unregister_handler                        output.o
core_mm_read_guest_phys                           output.o
core_mm_write_guest_phys                          output.o
cpu_emul_cli                                      output.o
cpu_emul_cpuid                                    output.o
cpu_emul_hlt                                      output.o
cpu_emul_rdmsr                                    output.o
cpu_emul_realmode_int                             output.o
cpu_emul_sti                                      output.o
cpu_emul_wrmsr                                    output.o
cpu_emul_xsetbv                                   output.o
cpu_interpreter                                   output.o
cpu_mmu_get_pte                                   output.o
cpu_mmu_spt_clear_all                             output.o
cpu_mmu_spt_extern_mapsearch                      output.o
cpu_mmu_spt_init                                  output.o
cpu_mmu_spt_invalidate                            output.o
cpu_mmu_spt_map_1mb                               output.o
cpu_mmu_spt_pagefault                             output.o
cpu_mmu_spt_tlbflush                              output.o
cpu_mmu_spt_updatecr3                             output.o
cpu_seg_read_b                                    output.o
cpu_seg_read_l                                    output.o
cpu_seg_read_q                                    output.o
cpu_seg_read_w                                    output.o
cpu_seg_write_b                                   output.o
cpu_seg_write_l                                   output.o
cpu_seg_write_q                                   output.o
cpu_seg_write_w                                   output.o
cpu_stack_get                                     output.o
cpu_stack_pop                                     output.o
cpu_stack_push                                    output.o
cpu_stack_set                                     output.o
cpuinit_end                                       output.o
cpuinit_start                                     output.o
crc32                                             output.o
create_dom                                        output.o
crypto_find                                       output.o
crypto_init                                       output.o
crypto_none_init                                  output.o
crypto_register                                   output.o
current_header                                    output.o
current_iphdr_dest                                output.o
current_iphdr_src                                 output.o
current_netif                                     output.o
curthread                                         output.o
d2i_ACCESS_DESCRIPTION                            output.o
d2i_ASN1_BIT_STRING                               output.o
d2i_ASN1_BMPSTRING                                output.o
d2i_ASN1_BOOLEAN                                  output.o
d2i_ASN1_ENUMERATED                               output.o
d2i_ASN1_GENERALIZEDTIME                          output.o
d2i_ASN1_GENERALSTRING                            output.o
d2i_ASN1_IA5STRING                                output.o
d2i_ASN1_INTEGER                                  output.o
d2i_ASN1_NULL                                     output.o
d2i_ASN1_OBJECT                                   output.o
d2i_ASN1_OCTET_STRING                             output.o
d2i_ASN1_PRINTABLE                                output.o
d2i_ASN1_PRINTABLESTRING                          output.o
d2i_ASN1_SEQUENCE_ANY                             output.o
d2i_ASN1_SET                                      output.o
d2i_ASN1_SET_ANY                                  output.o
d2i_ASN1_T61STRING                                output.o
d2i_ASN1_TIME                                     output.o
d2i_ASN1_TYPE                                     output.o
d2i_ASN1_UINTEGER                                 output.o
d2i_ASN1_UNIVERSALSTRING                          output.o
d2i_ASN1_UTCTIME                                  output.o
d2i_ASN1_UTF8STRING                               output.o
d2i_ASN1_VISIBLESTRING                            output.o
d2i_ASN1_bytes                                    output.o
d2i_ASN1_type_bytes                               output.o
d2i_AUTHORITY_INFO_ACCESS                         output.o
d2i_AUTHORITY_KEYID                               output.o
d2i_AutoPrivateKey                                output.o
d2i_BASIC_CONSTRAINTS                             output.o
d2i_CERTIFICATEPOLICIES                           output.o
d2i_CMS_ContentInfo                               output.o
d2i_CMS_bio                                       output.o
d2i_CRL_DIST_POINTS                               output.o
d2i_DHparams                                      output.o
d2i_DIRECTORYSTRING                               output.o
d2i_DISPLAYTEXT                                   output.o
d2i_DIST_POINT                                    output.o
d2i_DIST_POINT_NAME                               output.o
d2i_DSAPrivateKey                                 output.o
d2i_DSAPrivateKey_bio                             output.o
d2i_DSAPublicKey                                  output.o
d2i_DSA_PUBKEY                                    output.o
d2i_DSA_PUBKEY_bio                                output.o
d2i_DSA_SIG                                       output.o
d2i_DSAparams                                     output.o
d2i_ECDSA_SIG                                     output.o
d2i_ECPKPARAMETERS                                output.o
d2i_ECPKParameters                                output.o
d2i_ECParameters                                  output.o
d2i_ECPrivateKey                                  output.o
d2i_ECPrivateKey_bio                              output.o
d2i_EC_PRIVATEKEY                                 output.o
d2i_EC_PUBKEY                                     output.o
d2i_EC_PUBKEY_bio                                 output.o
d2i_EDIPARTYNAME                                  output.o
d2i_EXTENDED_KEY_USAGE                            output.o
d2i_GENERAL_NAME                                  output.o
d2i_GENERAL_NAMES                                 output.o
d2i_ISSUING_DIST_POINT                            output.o
d2i_NETSCAPE_SPKAC                                output.o
d2i_NETSCAPE_SPKI                                 output.o
d2i_NOTICEREF                                     output.o
d2i_OCSP_BASICRESP                                output.o
d2i_OCSP_CERTID                                   output.o
d2i_OCSP_CERTSTATUS                               output.o
d2i_OCSP_CRLID                                    output.o
d2i_OCSP_ONEREQ                                   output.o
d2i_OCSP_REQINFO                                  output.o
d2i_OCSP_REQUEST                                  output.o
d2i_OCSP_RESPBYTES                                output.o
d2i_OCSP_RESPDATA                                 output.o
d2i_OCSP_RESPID                                   output.o
d2i_OCSP_RESPONSE                                 output.o
d2i_OCSP_REVOKEDINFO                              output.o
d2i_OCSP_SERVICELOC                               output.o
d2i_OCSP_SIGNATURE                                output.o
d2i_OCSP_SINGLERESP                               output.o
d2i_OTHERNAME                                     output.o
d2i_PBE2PARAM                                     output.o
d2i_PBEPARAM                                      output.o
d2i_PBKDF2PARAM                                   output.o
d2i_PKCS12                                        output.o
d2i_PKCS12_BAGS                                   output.o
d2i_PKCS12_MAC_DATA                               output.o
d2i_PKCS12_SAFEBAG                                output.o
d2i_PKCS12_bio                                    output.o
d2i_PKCS7                                         output.o
d2i_PKCS7_DIGEST                                  output.o
d2i_PKCS7_ENCRYPT                                 output.o
d2i_PKCS7_ENC_CONTENT                             output.o
d2i_PKCS7_ENVELOPE                                output.o
d2i_PKCS7_ISSUER_AND_SERIAL                       output.o
d2i_PKCS7_RECIP_INFO                              output.o
d2i_PKCS7_SIGNED                                  output.o
d2i_PKCS7_SIGNER_INFO                             output.o
d2i_PKCS7_SIGN_ENVELOPE                           output.o
d2i_PKCS7_bio                                     output.o
d2i_PKCS8_PRIV_KEY_INFO                           output.o
d2i_PKCS8_PRIV_KEY_INFO_bio                       output.o
d2i_PKCS8_bio                                     output.o
d2i_PKEY_USAGE_PERIOD                             output.o
d2i_POLICYINFO                                    output.o
d2i_POLICYQUALINFO                                output.o
d2i_PROXY_CERT_INFO_EXTENSION                     output.o
d2i_PROXY_POLICY                                  output.o
d2i_PUBKEY                                        output.o
d2i_PUBKEY_bio                                    output.o
d2i_PrivateKey                                    output.o
d2i_PrivateKey_bio                                output.o
d2i_RSAPrivateKey                                 output.o
d2i_RSAPrivateKey_bio                             output.o
d2i_RSAPublicKey                                  output.o
d2i_RSAPublicKey_bio                              output.o
d2i_RSA_PUBKEY                                    output.o
d2i_RSA_PUBKEY_bio                                output.o
d2i_SXNET                                         output.o
d2i_SXNETID                                       output.o
d2i_USERNOTICE                                    output.o
d2i_X509                                          output.o
d2i_X509_ALGOR                                    output.o
d2i_X509_ALGORS                                   output.o
d2i_X509_ATTRIBUTE                                output.o
d2i_X509_AUX                                      output.o
d2i_X509_CERT_AUX                                 output.o
d2i_X509_CERT_PAIR                                output.o
d2i_X509_CINF                                     output.o
d2i_X509_CRL                                      output.o
d2i_X509_CRL_INFO                                 output.o
d2i_X509_CRL_bio                                  output.o
d2i_X509_EXTENSION                                output.o
d2i_X509_EXTENSIONS                               output.o
d2i_X509_NAME                                     output.o
d2i_X509_NAME_ENTRY                               output.o
d2i_X509_PUBKEY                                   output.o
d2i_X509_REQ                                      output.o
d2i_X509_REQ_INFO                                 output.o
d2i_X509_REQ_bio                                  output.o
d2i_X509_REVOKED                                  output.o
d2i_X509_SIG                                      output.o
d2i_X509_VAL                                      output.o
d2i_X509_bio                                      output.o
dataend                                           output.o
deactivate_and_delete_urb                         output.o
debug_gdb                                         output.o
debug_iohook                                      output.o
debug_msgregister                                 output.o
debug_msgunregister                               output.o
decryptcfg                                        output.o
default_pctx                                      output.o
dh_asn1_meth                                      output.o
dh_pkey_meth                                      output.o
dhcp_cleanup                                      output.o
dhcp_coarse_tmr                                   output.o
dhcp_fine_tmr                                     output.o
dhcp_inform                                       output.o
dhcp_network_changed                              output.o
dhcp_release                                      output.o
dhcp_renew                                        output.o
dhcp_rx_options_given                             output.o
dhcp_rx_options_val                               output.o
dhcp_set_struct                                   output.o
dhcp_start                                        output.o
dhcp_stop                                         output.o
disable_apic                                      output.o
disconnect_pcidev_driver                          output.o
dns_gethostbyname                                 output.o
dns_getserver                                     output.o
dns_init                                          output.o
dns_setserver                                     output.o
dns_tmr                                           output.o
do_exint_pass                                     output.o
do_externalint_enable                             output.o
do_io_nothing                                     output.o
do_iopass_default                                 output.o
do_panic_reboot                                   output.o
dom_io                                            output.o
dprintf_port                                      output.o
drhd_list_head                                    output.o
dsa_asn1_meths                                    output.o
dsa_builtin_paramgen                              output.o
dsa_pkey_meth                                     output.o
dsa_pub_internal_it                               output.o
dump_frame                                        output.o
dump_qh                                           output.o
dump_td                                           output.o
dump_td_byvirt                                    output.o
dwReaders                                         output.o
e801_fake_ax                                      output.o
e801_fake_bx                                      output.o
ec_GF2m_have_precompute_mult                      output.o
ec_GF2m_precompute_mult                           output.o
ec_GF2m_simple_add                                output.o
ec_GF2m_simple_cmp                                output.o
ec_GF2m_simple_dbl                                output.o
ec_GF2m_simple_field_div                          output.o
ec_GF2m_simple_field_mul                          output.o
ec_GF2m_simple_field_sqr                          output.o
ec_GF2m_simple_group_check_discriminant           output.o
ec_GF2m_simple_group_clear_finish                 output.o
ec_GF2m_simple_group_copy                         output.o
ec_GF2m_simple_group_finish                       output.o
ec_GF2m_simple_group_get_curve                    output.o
ec_GF2m_simple_group_get_degree                   output.o
ec_GF2m_simple_group_init                         output.o
ec_GF2m_simple_group_set_curve                    output.o
ec_GF2m_simple_invert                             output.o
ec_GF2m_simple_is_at_infinity                     output.o
ec_GF2m_simple_is_on_curve                        output.o
ec_GF2m_simple_make_affine                        output.o
ec_GF2m_simple_mul                                output.o
ec_GF2m_simple_oct2point                          output.o
ec_GF2m_simple_point2oct                          output.o
ec_GF2m_simple_point_clear_finish                 output.o
ec_GF2m_simple_point_copy                         output.o
ec_GF2m_simple_point_finish                       output.o
ec_GF2m_simple_point_get_affine_coordinates       output.o
ec_GF2m_simple_point_init                         output.o
ec_GF2m_simple_point_set_affine_coordinates       output.o
ec_GF2m_simple_point_set_to_infinity              output.o
ec_GF2m_simple_points_make_affine                 output.o
ec_GF2m_simple_set_compressed_coordinates         output.o
ec_GFp_mont_field_decode                          output.o
ec_GFp_mont_field_encode                          output.o
ec_GFp_mont_field_mul                             output.o
ec_GFp_mont_field_set_to_one                      output.o
ec_GFp_mont_field_sqr                             output.o
ec_GFp_mont_group_clear_finish                    output.o
ec_GFp_mont_group_copy                            output.o
ec_GFp_mont_group_finish                          output.o
ec_GFp_mont_group_init                            output.o
ec_GFp_mont_group_set_curve                       output.o
ec_GFp_nist_field_mul                             output.o
ec_GFp_nist_field_sqr                             output.o
ec_GFp_nist_group_copy                            output.o
ec_GFp_nist_group_set_curve                       output.o
ec_GFp_simple_add                                 output.o
ec_GFp_simple_cmp                                 output.o
ec_GFp_simple_dbl                                 output.o
ec_GFp_simple_field_mul                           output.o
ec_GFp_simple_field_sqr                           output.o
ec_GFp_simple_get_Jprojective_coordinates_GFp     output.o
ec_GFp_simple_group_check_discriminant            output.o
ec_GFp_simple_group_clear_finish                  output.o
ec_GFp_simple_group_copy                          output.o
ec_GFp_simple_group_finish                        output.o
ec_GFp_simple_group_get_curve                     output.o
ec_GFp_simple_group_get_degree                    output.o
ec_GFp_simple_group_init                          output.o
ec_GFp_simple_group_set_curve                     output.o
ec_GFp_simple_invert                              output.o
ec_GFp_simple_is_at_infinity                      output.o
ec_GFp_simple_is_on_curve                         output.o
ec_GFp_simple_make_affine                         output.o
ec_GFp_simple_oct2point                           output.o
ec_GFp_simple_point2oct                           output.o
ec_GFp_simple_point_clear_finish                  output.o
ec_GFp_simple_point_copy                          output.o
ec_GFp_simple_point_finish                        output.o
ec_GFp_simple_point_get_affine_coordinates        output.o
ec_GFp_simple_point_init                          output.o
ec_GFp_simple_point_set_affine_coordinates        output.o
ec_GFp_simple_point_set_to_infinity               output.o
ec_GFp_simple_points_make_affine                  output.o
ec_GFp_simple_set_Jprojective_coordinates_GFp     output.o
ec_GFp_simple_set_compressed_coordinates          output.o
ec_pkey_meth                                      output.o
ec_wNAF_have_precompute_mult                      output.o
ec_wNAF_mul                                       output.o
ec_wNAF_precompute_mult                           output.o
ecdh_check                                        output.o
ecdsa_check                                       output.o
echo_client_init                                  output.o
echo_client_send                                  output.o
echo_server_init                                  output.o
eckey_asn1_meth                                   output.o
ehci_check_advance                                output.o
ehci_check_urb_advance                            output.o
ehci_cleanup_urbs                                 output.o
ehci_conceal_portroute                            output.o
ehci_deactivate_urb                               output.o
ehci_dump_alist                                   output.o
ehci_dump_all                                     output.o
ehci_dump_async                                   output.o
ehci_dump_qtd                                     output.o
ehci_dump_qtdm                                    output.o
ehci_dump_urb                                     output.o
ehci_dump_urblist                                 output.o
ehci_end_monitor_async                            output.o
ehci_host                                         output.o
ehci_init                                         output.o
ehci_monitor_async_list                           output.o
ehci_shadow_async_list                            output.o
ehci_shadow_buffer                                output.o
ehci_submit_bulk                                  output.o
ehci_submit_control                               output.o
ehci_submit_interrupt                             output.o
end                                               output.o
entry                                             output.o
entry_pd                                          output.o
entry_pd0                                         output.o
entry_pdp                                         output.o
etharp_cleanup_netif                              output.o
etharp_find_addr                                  output.o
etharp_output                                     output.o
etharp_query                                      output.o
etharp_raw                                        output.o
etharp_request                                    output.o
etharp_tmr                                        output.o
ethbroadcast                                      output.o
ethernet_input                                    output.o
ethzero                                           output.o
evp_pkey_set_cb_translate                         output.o
exint_pass_intr_alloc                             output.o
exint_pass_intr_free                              output.o
exint_pass_intr_register_callback                 output.o
exitprocess                                       output.o
fill_pagetable                                    output.o
free                                              output.o
free_config_descriptors                           output.o
free_device                                       output.o
free_page                                         output.o
free_page_phys                                    output.o
g_rgSCardT0Pci                                    output.o
g_rgSCardT1Pci                                    output.o
get_acpi_time                                     output.o
get_acpi_time_raw                                 output.o
get_cpu_id                                        output.o
get_cpu_time                                      output.o
get_gurb_by_address                               output.o
get_idman_session                                 output.o
get_seg_access_rights                             output.o
get_seg_base                                      output.o
get_time                                          output.o
getfakesysmemmap                                  output.o
getsysmemmap                                      output.o
gmm_pass_getforcemap                              output.o
gmm_pass_gp2hp                                    output.o
gmm_pass_gp2hp_2m                                 output.o
gs_current                                        output.o
gs_currentcpu                                     output.o
gs_init_count                                     output.o
gs_inthandling                                    output.o
gs_nmi                                            output.o
gs_syscallstack                                   output.o
guest_int0x15_e801_fake_ax                        output.o
guest_int0x15_e801_fake_bx                        output.o
guest_int0x15_e820_data_minus0x18                 output.o
guest_int0x15_e820_end                            output.o
guest_int0x15_hook                                output.o
guest_int0x15_hook_end                            output.o
guest_int0x15_orig                                output.o
hContext                                          output.o
hObjectCnt                                        output.o
hSessionCnt                                       output.o
handle_connect_status                             output.o
handle_init_to_bsp                                output.o
handle_port_reset                                 output.o
handler_descriptor                                output.o
handler_descriptor_lock                           output.o
head                                              output.o
hex_to_string                                     output.o
hmac_asn1_meth                                    output.o
hmac_pkey_meth                                    output.o
hub_portdevice_register                           output.o
i2a_ACCESS_DESCRIPTION                            output.o
i2a_ASN1_INTEGER                                  output.o
i2a_ASN1_OBJECT                                   output.o
i2a_ASN1_STRING                                   output.o
i2c_ASN1_BIT_STRING                               output.o
i2c_ASN1_INTEGER                                  output.o
i2d_ACCESS_DESCRIPTION                            output.o
i2d_ASN1_BIT_STRING                               output.o
i2d_ASN1_BMPSTRING                                output.o
i2d_ASN1_BOOLEAN                                  output.o
i2d_ASN1_ENUMERATED                               output.o
i2d_ASN1_GENERALIZEDTIME                          output.o
i2d_ASN1_GENERALSTRING                            output.o
i2d_ASN1_IA5STRING                                output.o
i2d_ASN1_INTEGER                                  output.o
i2d_ASN1_NULL                                     output.o
i2d_ASN1_OBJECT                                   output.o
i2d_ASN1_OCTET_STRING                             output.o
i2d_ASN1_PRINTABLE                                output.o
i2d_ASN1_PRINTABLESTRING                          output.o
i2d_ASN1_SEQUENCE_ANY                             output.o
i2d_ASN1_SET                                      output.o
i2d_ASN1_SET_ANY                                  output.o
i2d_ASN1_T61STRING                                output.o
i2d_ASN1_TIME                                     output.o
i2d_ASN1_TYPE                                     output.o
i2d_ASN1_UNIVERSALSTRING                          output.o
i2d_ASN1_UTCTIME                                  output.o
i2d_ASN1_UTF8STRING                               output.o
i2d_ASN1_VISIBLESTRING                            output.o
i2d_ASN1_bio_stream                               output.o
i2d_ASN1_bytes                                    output.o
i2d_AUTHORITY_INFO_ACCESS                         output.o
i2d_AUTHORITY_KEYID                               output.o
i2d_BASIC_CONSTRAINTS                             output.o
i2d_CERTIFICATEPOLICIES                           output.o
i2d_CMS_ContentInfo                               output.o
i2d_CMS_bio                                       output.o
i2d_CMS_bio_stream                                output.o
i2d_CRL_DIST_POINTS                               output.o
i2d_DHparams                                      output.o
i2d_DIRECTORYSTRING                               output.o
i2d_DISPLAYTEXT                                   output.o
i2d_DIST_POINT                                    output.o
i2d_DIST_POINT_NAME                               output.o
i2d_DSAPrivateKey                                 output.o
i2d_DSAPrivateKey_bio                             output.o
i2d_DSAPublicKey                                  output.o
i2d_DSA_PUBKEY                                    output.o
i2d_DSA_PUBKEY_bio                                output.o
i2d_DSA_SIG                                       output.o
i2d_DSAparams                                     output.o
i2d_ECDSA_SIG                                     output.o
i2d_ECPKPARAMETERS                                output.o
i2d_ECPKParameters                                output.o
i2d_ECParameters                                  output.o
i2d_ECPrivateKey                                  output.o
i2d_ECPrivateKey_bio                              output.o
i2d_EC_PRIVATEKEY                                 output.o
i2d_EC_PUBKEY                                     output.o
i2d_EC_PUBKEY_bio                                 output.o
i2d_EDIPARTYNAME                                  output.o
i2d_EXTENDED_KEY_USAGE                            output.o
i2d_GENERAL_NAME                                  output.o
i2d_GENERAL_NAMES                                 output.o
i2d_ISSUING_DIST_POINT                            output.o
i2d_NETSCAPE_SPKAC                                output.o
i2d_NETSCAPE_SPKI                                 output.o
i2d_NOTICEREF                                     output.o
i2d_OCSP_BASICRESP                                output.o
i2d_OCSP_CERTID                                   output.o
i2d_OCSP_CERTSTATUS                               output.o
i2d_OCSP_CRLID                                    output.o
i2d_OCSP_ONEREQ                                   output.o
i2d_OCSP_REQINFO                                  output.o
i2d_OCSP_REQUEST                                  output.o
i2d_OCSP_RESPBYTES                                output.o
i2d_OCSP_RESPDATA                                 output.o
i2d_OCSP_RESPID                                   output.o
i2d_OCSP_RESPONSE                                 output.o
i2d_OCSP_REVOKEDINFO                              output.o
i2d_OCSP_SERVICELOC                               output.o
i2d_OCSP_SIGNATURE                                output.o
i2d_OCSP_SINGLERESP                               output.o
i2d_OTHERNAME                                     output.o
i2d_PBE2PARAM                                     output.o
i2d_PBEPARAM                                      output.o
i2d_PBKDF2PARAM                                   output.o
i2d_PKCS12                                        output.o
i2d_PKCS12_BAGS                                   output.o
i2d_PKCS12_MAC_DATA                               output.o
i2d_PKCS12_SAFEBAG                                output.o
i2d_PKCS12_bio                                    output.o
i2d_PKCS7                                         output.o
i2d_PKCS7_DIGEST                                  output.o
i2d_PKCS7_ENCRYPT                                 output.o
i2d_PKCS7_ENC_CONTENT                             output.o
i2d_PKCS7_ENVELOPE                                output.o
i2d_PKCS7_ISSUER_AND_SERIAL                       output.o
i2d_PKCS7_NDEF                                    output.o
i2d_PKCS7_RECIP_INFO                              output.o
i2d_PKCS7_SIGNED                                  output.o
i2d_PKCS7_SIGNER_INFO                             output.o
i2d_PKCS7_SIGN_ENVELOPE                           output.o
i2d_PKCS7_bio                                     output.o
i2d_PKCS8PrivateKeyInfo_bio                       output.o
i2d_PKCS8_PRIV_KEY_INFO                           output.o
i2d_PKCS8_PRIV_KEY_INFO_bio                       output.o
i2d_PKCS8_bio                                     output.o
i2d_PKEY_USAGE_PERIOD                             output.o
i2d_POLICYINFO                                    output.o
i2d_POLICYQUALINFO                                output.o
i2d_PROXY_CERT_INFO_EXTENSION                     output.o
i2d_PROXY_POLICY                                  output.o
i2d_PUBKEY                                        output.o
i2d_PUBKEY_bio                                    output.o
i2d_PrivateKey                                    output.o
i2d_PrivateKey_bio                                output.o
i2d_RSAPrivateKey                                 output.o
i2d_RSAPrivateKey_bio                             output.o
i2d_RSAPublicKey                                  output.o
i2d_RSAPublicKey_bio                              output.o
i2d_RSA_PUBKEY                                    output.o
i2d_RSA_PUBKEY_bio                                output.o
i2d_SXNET                                         output.o
i2d_SXNETID                                       output.o
i2d_USERNOTICE                                    output.o
i2d_X509                                          output.o
i2d_X509_ALGOR                                    output.o
i2d_X509_ALGORS                                   output.o
i2d_X509_ATTRIBUTE                                output.o
i2d_X509_AUX                                      output.o
i2d_X509_CERT_AUX                                 output.o
i2d_X509_CERT_PAIR                                output.o
i2d_X509_CINF                                     output.o
i2d_X509_CRL                                      output.o
i2d_X509_CRL_INFO                                 output.o
i2d_X509_CRL_bio                                  output.o
i2d_X509_EXTENSION                                output.o
i2d_X509_EXTENSIONS                               output.o
i2d_X509_NAME                                     output.o
i2d_X509_NAME_ENTRY                               output.o
i2d_X509_PUBKEY                                   output.o
i2d_X509_REQ                                      output.o
i2d_X509_REQ_INFO                                 output.o
i2d_X509_REQ_bio                                  output.o
i2d_X509_REVOKED                                  output.o
i2d_X509_SIG                                      output.o
i2d_X509_VAL                                      output.o
i2d_X509_bio                                      output.o
i2o_ECPublicKey                                   output.o
i2s_ASN1_ENUMERATED                               output.o
i2s_ASN1_ENUMERATED_TABLE                         output.o
i2s_ASN1_INTEGER                                  output.o
i2s_ASN1_OCTET_STRING                             output.o
i2t_ASN1_OBJECT                                   output.o
i2v_ASN1_BIT_STRING                               output.o
i2v_GENERAL_NAME                                  output.o
i2v_GENERAL_NAMES                                 output.o
icmp_dest_unreach                                 output.o
icmp_input                                        output.o
icmp_time_exceeded                                output.o
idea_cbc_encrypt                                  output.o
idea_cfb64_encrypt                                output.o
idea_ecb_encrypt                                  output.o
idea_encrypt                                      output.o
idea_ofb64_encrypt                                output.o
idea_options                                      output.o
idea_set_decrypt_key                              output.o
idea_set_encrypt_key                              output.o
idman_reinit2                                     output.o
idman_reinit_session                              output.o
idman_user_init                                   output.o
ieee1394_init                                     output.o
inet_chksum                                       output.o
inet_chksum_pbuf                                  output.o
inet_chksum_pseudo                                output.o
inet_chksum_pseudo_partial                        output.o
init                                              output.o
init_hframelist                                   output.o
initfunc_init                                     output.o
int1a_TCG_CompactHashLogExtendEvent               output.o
int1a_TCG_HashAll                                 output.o
int1a_TCG_HashLogEvent                            output.o
int1a_TCG_HashLogExtendEvent                      output.o
int1a_TCG_PassThroughToTPM                        output.o
int1a_TCG_StatusCheck                             output.o
int1a_TCG_TSS                                     output.o
int_callfunc                                      output.o
int_exceptionHandler                              output.o
int_fatal                                         output.o
int_handler                                       output.o
int_init_ap                                       output.o
int_rsa_verify                                    output.o
iodom_init                                        output.o
iommu_detected                                    output.o
iommu_setup                                       output.o
ip4_addr_isbroadcast                              output.o
ip4_addr_netmask_valid                            output.o
ip_addr_any                                       output.o
ip_addr_broadcast                                 output.o
ip_frag                                           output.o
ip_input                                          output.o
ip_main_init                                      output.o
ip_main_input                                     output.o
ip_main_task                                      output.o
ip_output                                         output.o
ip_output_if                                      output.o
ip_reass                                          output.o
ip_reass_tmr                                      output.o
ip_route                                          output.o
ip_sys_now                                        output.o
ipaddr_addr                                       output.o
ipaddr_aton                                       output.o
ipaddr_ntoa                                       output.o
ipaddr_ntoa_r                                     output.o
ipchecksum                                        output.o
judge                                             output.o
keyboard_flush                                    output.o
keyboard_reset                                    output.o
lbrbuf                                            output.o
lbrbuf_idx                                        output.o
lbrbuf_maxidx                                     output.o
lbrbufsize                                        output.o
level_add_node                                    output.o
level_find_node                                   output.o
lh_delete                                         output.o
lh_doall                                          output.o
lh_doall_arg                                      output.o
lh_free                                           output.o
lh_insert                                         output.o
lh_new                                            output.o
lh_num_items                                      output.o
lh_retrieve                                       output.o
lh_strhash                                        output.o
lh_version                                        output.o
libInitFlag                                       output.o
load_bootsector                                   output.o
load_minios                                       output.o
load_new_vcpu                                     output.o
localapic_change_base_msr                         output.o
localapic_delayed_ap_start                        output.o
localapic_mmio_register                           output.o
localapic_wait_for_sipi                           output.o
localapic_x2apic_icr                              output.o
lwip_htonl                                        output.o
lwip_htons                                        output.o
lwip_init                                         output.o
lwip_ntohl                                        output.o
lwip_ntohs                                        output.o
mapInt                                            output.o
mapmem                                            output.o
mapmem_gphys                                      output.o
mapmem_hphys                                      output.o
matched_drhd_u                                    output.o
md4_block_data_order                              output.o
md5_block_data_order                              output.o
mem_calloc                                        output.o
mem_free                                          output.o
mem_init                                          output.o
mem_malloc                                        output.o
mem_trim                                          output.o
memcmp                                            output.o
memcpy                                            output.o
memorysize                                        output.o
memp_free                                         output.o
memp_init                                         output.o
memp_malloc                                       output.o
mempool_allocmem                                  output.o
mempool_free                                      output.o
mempool_freemem                                   output.o
mempool_new                                       output.o
memset                                            output.o
message_exitcode                                  output.o
message_exitreason                                output.o
mm_flush_wb_cache                                 output.o
mm_force_unlock                                   output.o
mm_free_panicmem                                  output.o
mm_get_panicmem                                   output.o
mm_process_alloc                                  output.o
mm_process_free                                   output.o
mm_process_map_alloc                              output.o
mm_process_map_shared                             output.o
mm_process_map_shared_physpage                    output.o
mm_process_map_stack                              output.o
mm_process_switch                                 output.o
mm_process_unmap                                  output.o
mm_process_unmap_stack                            output.o
mm_process_unmapall                               output.o
mmio_access_memory                                output.o
mmio_access_page                                  output.o
mmio_lock                                         output.o
mmio_range                                        output.o
mmio_register                                     output.o
mmio_register_unlocked                            output.o
mmio_unlock                                       output.o
mmio_unregister                                   output.o
move_vmm_area32                                   output.o
move_vmm_area64                                   output.o
mpudiv_128_32                                     output.o
mpumul_64_64                                      output.o
msg_findname                                      output.o
msg_register                                      output.o
msg_unregister                                    output.o
msg_unregister2                                   output.o
msg_unregisterall                                 output.o
msg_usb_bulk_read                                 output.o
msg_usb_bulk_write                                output.o
msg_usb_claim_interface                           output.o
msg_usb_close                                     output.o
msg_usb_control_msg                               output.o
msg_usb_find_busses                               output.o
msg_usb_find_devices                              output.o
msg_usb_get_busses                                output.o
msg_usb_get_string_simple                         output.o
msg_usb_init                                      output.o
msg_usb_open                                      output.o
msg_usb_release_interface                         output.o
msg_usb_reset                                     output.o
msgclose                                          output.o
msgopen                                           output.o
msgpremapbuf                                      output.o
msgregister                                       output.o
msgsendbuf                                        output.o
msgsenddesc                                       output.o
msgsendint                                        output.o
msgsetfunc                                        output.o
msgunregister                                     output.o
msr_pass_hook_x2apic_icr                          output.o
mszReaders                                        output.o
name_cmp                                          output.o
net_init                                          output.o
net_main_get_mac_address                          output.o
net_main_poll                                     output.o
net_main_send                                     output.o
net_main_set_recv_arg                             output.o
net_main_task_add                                 output.o
net_new_nic                                       output.o
net_premap_recvbuf                                output.o
net_register                                      output.o
net_start                                         output.o
netif_add                                         output.o
netif_default                                     output.o
netif_find                                        output.o
netif_init                                        output.o
netif_list                                        output.o
netif_remove                                      output.o
netif_set_addr                                    output.o
netif_set_default                                 output.o
netif_set_down                                    output.o
netif_set_gw                                      output.o
netif_set_ipaddr                                  output.o
netif_set_link_down                               output.o
netif_set_link_up                                 output.o
netif_set_netmask                                 output.o
netif_set_up                                      output.o
newprocess                                        output.o
num_dom                                           output.o
num_of_available_pages                            output.o
num_of_processors                                 output.o
o2i_ECPublicKey                                   output.o
obj_cleanup_defer                                 output.o
own_process64_msrs                                output.o
packet_handle_command                             output.o
packet_handle_config                              output.o
packet_handle_invalid                             output.o
packet_handle_nondata                             output.o
packet_handle_rw                                  output.o
packet_handle_through                             output.o
panic                                             output.o
panic_oom                                         output.o
panic_test                                        output.o
panic_wakeup_all                                  output.o
parseData                                         output.o
parse_dmar_bios_report                            output.o
pbuf_alloc                                        output.o
pbuf_alloced_custom                               output.o
pbuf_cat                                          output.o
pbuf_chain                                        output.o
pbuf_clen                                         output.o
pbuf_coalesce                                     output.o
pbuf_copy                                         output.o
pbuf_copy_partial                                 output.o
pbuf_dechain                                      output.o
pbuf_free                                         output.o
pbuf_free_ooseq                                   output.o
pbuf_free_ooseq_pending                           output.o
pbuf_get_at                                       output.o
pbuf_header                                       output.o
pbuf_memcmp                                       output.o
pbuf_memfind                                      output.o
pbuf_realloc                                      output.o
pbuf_ref                                          output.o
pbuf_strstr                                       output.o
pbuf_take                                         output.o
pci_append_device                                 output.o
pci_conceal_config_read                           output.o
pci_conceal_config_write                          output.o
pci_conceal_new                                   output.o
pci_config_addr_handler                           output.o
pci_config_data_handler                           output.o
pci_config_mmio_data_head                         output.o
pci_config_mmio_handler                           output.o
pci_device_list_head                              output.o
pci_driver_list_head                              output.o
pci_driver_option_get_bool                        output.o
pci_driver_option_get_int                         output.o
pci_dump_pci_dev_list                             output.o
pci_find_driver_by_token                          output.o
pci_find_driver_for_device                        output.o
pci_get_bar_info                                  output.o
pci_get_bridge_from_bus_no                        output.o
pci_get_modifying_bar_info                        output.o
pci_handle_default_config_read                    output.o
pci_handle_default_config_write                   output.o
pci_match                                         output.o
pci_match_add_compat                              output.o
pci_match_find_driver                             output.o
pci_monitor_config_read                           output.o
pci_monitor_config_write                          output.o
pci_monitor_new                                   output.o
pci_msi_disable                                   output.o
pci_msi_enable                                    output.o
pci_msi_init                                      output.o
pci_possible_new_device                           output.o
pci_print_device                                  output.o
pci_read_config_data16                            output.o
pci_read_config_data32                            output.o
pci_read_config_data8                             output.o
pci_read_config_data_port                         output.o
pci_read_config_mmio                              output.o
pci_readwrite_config_mmio                         output.o
pci_reconnect_device                              output.o
pci_register_driver                               output.o
pci_register_intr_callback                        output.o
pci_restore_config_addr                           output.o
pci_save_config_addr                              output.o
pci_set_bridge_fake_command                       output.o
pci_set_bridge_from_bus_no                        output.o
pci_set_bridge_io                                 output.o
pci_system_disconnect                             output.o
pci_write_config_data16                           output.o
pci_write_config_data32                           output.o
pci_write_config_data8                            output.o
pci_write_config_data_port                        output.o
pci_write_config_mmio                             output.o
pcpu_default                                      output.o
pcpu_init                                         output.o
pcpu_list_add                                     output.o
pcpu_list_foreach                                 output.o
pem_check_suffix                                  output.o
phys_in_vmm                                       output.o
phys_to_virt                                      output.o
pmap_autoalloc                                    output.o
pmap_clear                                        output.o
pmap_close                                        output.o
pmap_dump                                         output.o
pmap_getreadlevel                                 output.o
pmap_open_guest                                   output.o
pmap_open_vmm                                     output.o
pmap_pointer                                      output.o
pmap_read                                         output.o
pmap_seek                                         output.o
pmap_setlevel                                     output.o
pmap_write                                        output.o
policy_cache_find_data                            output.o
policy_cache_free                                 output.o
policy_cache_set                                  output.o
policy_cache_set_mapping                          output.o
policy_data_free                                  output.o
policy_data_new                                   output.o
policy_node_cmp_new                               output.o
policy_node_free                                  output.o
policy_node_match                                 output.o
prepare_for_sleep                                 output.o
printexitcode                                     output.o
printexitreason                                   output.o
printf                                            output.o
pro100_alloc_page                                 output.o
pro100_alloc_recv_buffer                          output.o
pro100_beep                                       output.o
pro100_config_read                                output.o
pro100_config_write                               output.o
pro100_exec_cu_op                                 output.o
pro100_flush                                      output.o
pro100_free_page                                  output.o
pro100_generate_int                               output.o
pro100_get_ctx                                    output.o
pro100_get_cu_command_string                      output.o
pro100_get_int_bit_string                         output.o
pro100_get_op_size                                output.o
pro100_get_ru_command_string                      output.o
pro100_get_stat_ack_string                        output.o
pro100_hook_read                                  output.o
pro100_hook_write                                 output.o
pro100_init                                       output.o
pro100_init_cu_base_addr                          output.o
pro100_init_recv_buffer                           output.o
pro100_init_ru_base_addr                          output.o
pro100_init_vpn_client                            output.o
pro100_io_handler                                 output.o
pro100_mem_read                                   output.o
pro100_mem_write                                  output.o
pro100_mm_handler                                 output.o
pro100_new                                        output.o
pro100_poll_ru                                    output.o
pro100_proc_guest_op                              output.o
pro100_read                                       output.o
pro100_read_send_packet                           output.o
pro100_send_packet_to_line                        output.o
pro100_sleep                                      output.o
pro100_wait_cu_ru_accepable                       output.o
pro100_write                                      output.o
pro100_write_recv_packet                          output.o
process_kill                                      output.o
process_syscall                                   output.o
processuser_no_sysenter                           output.o
processuser_syscall                               output.o
processuser_sysenter                              output.o
prohibit_iccard_init                              output.o
ps2_locked                                        output.o
putchar                                           output.o
putchar_set_func                                  output.o
ram_heap                                          output.o
rand_ssleay_meth                                  output.o
raw_bind                                          output.o
raw_connect                                       output.o
raw_input                                         output.o
raw_new                                           output.o
raw_recv                                          output.o
raw_remove                                        output.o
raw_send                                          output.o
raw_sendto                                        output.o
read_gphys_b                                      output.o
read_gphys_l                                      output.o
read_gphys_q                                      output.o
read_gphys_w                                      output.o
read_hphys_b                                      output.o
read_hphys_l                                      output.o
read_hphys_q                                      output.o
read_hphys_w                                      output.o
read_linearaddr_b                                 output.o
read_linearaddr_l                                 output.o
read_linearaddr_q                                 output.o
read_linearaddr_tss                               output.o
read_linearaddr_w                                 output.o
readerState                                       output.o
readerTracker                                     output.o
realloc                                           output.o
reboot_test                                       output.o
register_status_callback                          output.o
resume_vm                                         output.o
ret_to_user32                                     output.o
ret_to_user64                                     output.o
ripemd160_block_data_order                        output.o
rsa_asn1_meths                                    output.o
rsa_pkey_meth                                     output.o
s2i_ASN1_INTEGER                                  output.o
s2i_ASN1_OCTET_STRING                             output.o
sReaderContext                                    output.o
savemsr_index                                     output.o
savemsr_load                                      output.o
savemsr_save                                      output.o
scan_gframelist                                   output.o
schedule                                          output.o
security_storage_check_lba                        output.o
segment_init_ap                                   output.o
segment_wakeup                                    output.o
serial_getDebugChar                               output.o
serial_init_iohook                                output.o
serial_putDebugChar                               output.o
serial_putchar                                    output.o
sessionTable                                      output.o
set_int_handler                                   output.o
set_iofunc                                        output.o
setkbdled                                         output.o
shadow_and_activate_urb                           output.o
sig_app                                           output.o
sigx_app                                          output.o
sk_delete                                         output.o
sk_delete_ptr                                     output.o
sk_dup                                            output.o
sk_find                                           output.o
sk_find_ex                                        output.o
sk_free                                           output.o
sk_insert                                         output.o
sk_is_sorted                                      output.o
sk_new                                            output.o
sk_new_null                                       output.o
sk_num                                            output.o
sk_pop                                            output.o
sk_pop_free                                       output.o
sk_push                                           output.o
sk_set                                            output.o
sk_set_cmp_func                                   output.o
sk_shift                                          output.o
sk_sort                                           output.o
sk_unshift                                        output.o
sk_value                                          output.o
sk_zero                                           output.o
sleep_set_timer_counter                           output.o
slotFlag                                          output.o
slotTable                                         output.o
snprintf                                          output.o
start_all_processors                              output.o
start_lbrpmu                                      output.o
storage_free                                      output.o
storage_get_num_hc                                output.o
storage_handle_sectors                            output.o
storage_hc_close                                  output.o
storage_hc_dev_atacommand                         output.o
storage_hc_dev_close                              output.o
storage_hc_dev_open                               output.o
storage_hc_hook_register                          output.o
storage_hc_hook_unregister                        output.o
storage_hc_open                                   output.o
storage_hc_register                               output.o
storage_hc_scandev                                output.o
storage_hc_unregister                             output.o
storage_init                                      output.o
storage_io_aget_size                              output.o
storage_io_aread                                  output.o
storage_io_awrite                                 output.o
storage_io_deinit                                 output.o
storage_io_get_num_devices                        output.o
storage_io_init                                   output.o
storage_new                                       output.o
storage_premap_buf                                output.o
storage_premap_handle_sectors                     output.o
strcmp                                            output.o
string_to_hex                                     output.o
strlen                                            output.o
strtol                                            output.o
svm_available                                     output.o
svm_enable_resume                                 output.o
svm_init                                          output.o
svm_init_signal                                   output.o
svm_ioio                                          output.o
svm_iopass                                        output.o
svm_msr_update_lma                                output.o
svm_msrpass                                       output.o
svm_np_clear_all                                  output.o
svm_np_extern_mapsearch                           output.o
svm_np_init                                       output.o
svm_np_map_1mb                                    output.o
svm_np_pagefault                                  output.o
svm_np_tlbflush                                   output.o
svm_np_updatecr3                                  output.o
svm_paging_apply_fixed_cr0                        output.o
svm_paging_apply_fixed_cr4                        output.o
svm_paging_clear_all                              output.o
svm_paging_extern_flush_tlb_entry                 output.o
svm_paging_flush_guest_tlb                        output.o
svm_paging_get_gpat                               output.o
svm_paging_init                                   output.o
svm_paging_invalidate                             output.o
svm_paging_map_1mb                                output.o
svm_paging_npf                                    output.o
svm_paging_pagefault                              output.o
svm_paging_pg_change                              output.o
svm_paging_set_gpat                               output.o
svm_paging_spt_setcr3                             output.o
svm_paging_start                                  output.o
svm_paging_tlbflush                               output.o
svm_paging_updatecr3                              output.o
svm_panic_dump                                    output.o
svm_read_control_reg                              output.o
svm_read_flags                                    output.o
svm_read_gdtr                                     output.o
svm_read_general_reg                              output.o
svm_read_idtr                                     output.o
svm_read_ip                                       output.o
svm_read_msr                                      output.o
svm_read_sreg_acr                                 output.o
svm_read_sreg_base                                output.o
svm_read_sreg_limit                               output.o
svm_read_sreg_sel                                 output.o
svm_reset                                         output.o
svm_resume                                        output.o
svm_start_vm                                      output.o
svm_vmexit                                        output.o
svm_vminit                                        output.o
svm_write_control_reg                             output.o
svm_write_flags                                   output.o
svm_write_gdtr                                    output.o
svm_write_general_reg                             output.o
svm_write_idtr                                    output.o
svm_write_ip                                      output.o
svm_write_msr                                     output.o
svm_write_realmode_seg                            output.o
svm_writing_sreg                                  output.o
sx_handler                                        output.o
sym_to_phys                                       output.o
sync_all_processors                               output.o
sys_check_timeouts                                output.o
sys_exitprocess                                   output.o
sys_msgclose                                      output.o
sys_msgopen                                       output.o
sys_msgregister                                   output.o
sys_msgret                                        output.o
sys_msgsendbuf                                    output.o
sys_msgsenddesc                                   output.o
sys_msgsendint                                    output.o
sys_msgsetfunc                                    output.o
sys_msgunregister                                 output.o
sys_newprocess                                    output.o
sys_now                                           output.o
sys_restart_timeouts                              output.o
sys_timeout                                       output.o
sys_timeouts_init                                 output.o
sys_untimeout                                     output.o
syscall_entry_lret                                output.o
syscall_entry_sysexit                             output.o
syscall_entry_sysret64                            output.o
tcg_measure                                       output.o
tcp_abandon                                       output.o
tcp_abort                                         output.o
tcp_accept                                        output.o
tcp_active_pcbs                                   output.o
tcp_active_pcbs_changed                           output.o
tcp_alloc                                         output.o
tcp_arg                                           output.o
tcp_backoff                                       output.o
tcp_bind                                          output.o
tcp_bound_pcbs                                    output.o
tcp_close                                         output.o
tcp_connect                                       output.o
tcp_debug_state_str                               output.o
tcp_eff_send_mss                                  output.o
tcp_enqueue_flags                                 output.o
tcp_err                                           output.o
tcp_fasttmr                                       output.o
tcp_init                                          output.o
tcp_input                                         output.o
tcp_input_pcb                                     output.o
tcp_keepalive                                     output.o
tcp_listen_pcbs                                   output.o
tcp_listen_with_backlog                           output.o
tcp_new                                           output.o
tcp_next_iss                                      output.o
tcp_output                                        output.o
tcp_pcb_lists                                     output.o
tcp_pcb_purge                                     output.o
tcp_pcb_remove                                    output.o
tcp_persist_backoff                               output.o
tcp_poll                                          output.o
tcp_process_refused_data                          output.o
tcp_recv                                          output.o
tcp_recv_null                                     output.o
tcp_recved                                        output.o
tcp_rexmit                                        output.o
tcp_rexmit_fast                                   output.o
tcp_rexmit_rto                                    output.o
tcp_rst                                           output.o
tcp_seg_copy                                      output.o
tcp_seg_free                                      output.o
tcp_segs_free                                     output.o
tcp_send_empty_ack                                output.o
tcp_send_fin                                      output.o
tcp_sent                                          output.o
tcp_setprio                                       output.o
tcp_shutdown                                      output.o
tcp_slowtmr                                       output.o
tcp_state_str                                     output.o
tcp_ticks                                         output.o
tcp_timer_needed                                  output.o
tcp_tmp_pcb                                       output.o
tcp_tmr                                           output.o
tcp_tw_pcbs                                       output.o
tcp_update_rcv_ann_wnd                            output.o
tcp_write                                         output.o
tcp_zero_window_probe                             output.o
tcpip_begin                                       output.o
thread_exit                                       output.o
thread_gettid                                     output.o
thread_new                                        output.o
thread_start0                                     output.o
thread_start1                                     output.o
thread_switch                                     output.o
thread_wakeup                                     output.o
thread_will_stop                                  output.o
timer_free                                        output.o
timer_new                                         output.o
timer_set                                         output.o
tree_find_sk                                      output.o
tty_get_logbuf_info                               output.o
tty_init_iohook                                   output.o
tty_putchar                                       output.o
tty_udp_register                                  output.o
ttylog_copy_from_panicmem                         output.o
ttylog_copy_to_panicmem                           output.o
ttylog_stop                                       output.o
udp_bind                                          output.o
udp_connect                                       output.o
udp_disconnect                                    output.o
udp_init                                          output.o
udp_input                                         output.o
udp_new                                           output.o
udp_pcbs                                          output.o
udp_recv                                          output.o
udp_remove                                        output.o
udp_send                                          output.o
udp_sendto                                        output.o
udp_sendto_if                                     output.o
uefi_acpi_20_table                                output.o
uefi_acpi_table                                   output.o
uefi_allocate_pages                               output.o
uefi_booted                                       output.o
uefi_close_protocol                               output.o
uefi_conin                                        output.o
uefi_conin_read_key_stroke                        output.o
uefi_conout                                       output.o
uefi_conout_output_string                         output.o
uefi_disconnect_controller                        output.o
uefi_entry_call                                   output.o
uefi_entry_pcpy                                   output.o
uefi_entry_ret_addr                               output.o
uefi_entry_rsp                                    output.o
uefi_entry_start                                  output.o
uefi_entry_virttophys                             output.o
uefi_free_pages                                   output.o
uefi_free_pool                                    output.o
uefi_get_memory_map                               output.o
uefi_image_handle                                 output.o
uefi_init                                         output.o
uefi_init_get_vmmsize                             output.o
uefi_locate_handle_buffer                         output.o
uefi_memory_map_data                              output.o
uefi_memory_map_descsize                          output.o
uefi_memory_map_size                              output.o
uefi_mmio_space                                   output.o
uefi_open_protocol                                output.o
uefi_wait_for_event                               output.o
uhci_activate_urb                                 output.o
uhci_check_advance                                output.o
uhci_check_urb_advance                            output.o
uhci_create_urb                                   output.o
uhci_current_frame_number                         output.o
uhci_deactivate_urb                               output.o
uhci_destroy_unlinked_urbs                        output.o
uhci_destroy_urb                                  output.o
uhci_dump_all                                     output.o
uhci_error_status_string                          output.o
uhci_framelist_monitor                            output.o
uhci_init                                         output.o
uhci_monitor_boost_hc                             output.o
uhci_reactivate_urb                               output.o
uhci_shadow_buffer                                output.o
uhci_submit_bulk                                  output.o
uhci_submit_control                               output.o
uhci_submit_interrupt                             output.o
unmapmem                                          output.o
update_mtrr_and_pat                               output.o
usb_api_batchtest                                 output.o
usb_bulk_read                                     output.o
usb_bulk_write                                    output.o
usb_busses_head                                   output.o
usb_claim_interface                               output.o
usb_clear_halt                                    output.o
usb_close                                         output.o
usb_control_msg                                   output.o
usb_find_busses                                   output.o
usb_find_devices                                  output.o
usb_get_bus                                       output.o
usb_get_busses                                    output.o
usb_get_descriptor                                output.o
usb_get_descriptor_by_endpoint                    output.o
usb_get_descriptor_early                          output.o
usb_get_string                                    output.o
usb_get_string_simple                             output.o
usb_hc_list_head                                  output.o
usb_hook_process                                  output.o
usb_hook_register                                 output.o
usb_hook_register_ex                              output.o
usb_hook_unregister                               output.o
usb_init                                          output.o
usb_init_device                                   output.o
usb_init_device_monitor                           output.o
usb_interrupt_read                                output.o
usb_interrupt_write                               output.o
usb_log_level                                     output.o
usb_new_dev_handle                                output.o
usb_open                                          output.o
usb_register_host                                 output.o
usb_release_interface                             output.o
usb_reset                                         output.o
usb_resetep                                       output.o
usb_sc_lock                                       output.o
usb_sc_unlock                                     output.o
usb_set_altinterface                              output.o
usb_set_configuration                             output.o
usb_set_debug                                     output.o
usb_unregister_devices                            output.o
usbccid_init_handle                               output.o
usbhid_init_handle                                output.o
usbhub_init_handle                                output.o
usbmsc_init_handle                                output.o
use_pae                                           output.o
usleep                                            output.o
v2i_ASN1_BIT_STRING                               output.o
v2i_GENERAL_NAME                                  output.o
v2i_GENERAL_NAMES                                 output.o
v2i_GENERAL_NAME_ex                               output.o
v3_akey_id                                        output.o
v3_alt                                            output.o
v3_bcons                                          output.o
v3_cpols                                          output.o
v3_crl_hold                                       output.o
v3_crl_invdate                                    output.o
v3_crl_num                                        output.o
v3_crl_reason                                     output.o
v3_crld                                           output.o
v3_delta_crl                                      output.o
v3_ext_ku                                         output.o
v3_freshest_crl                                   output.o
v3_idp                                            output.o
v3_info                                           output.o
v3_inhibit_anyp                                   output.o
v3_key_usage                                      output.o
v3_name_constraints                               output.o
v3_ns_ia5_list                                    output.o
v3_nscert                                         output.o
v3_ocsp_accresp                                   output.o
v3_ocsp_acutoff                                   output.o
v3_ocsp_crlid                                     output.o
v3_ocsp_nocheck                                   output.o
v3_ocsp_nonce                                     output.o
v3_ocsp_serviceloc                                output.o
v3_pci                                            output.o
v3_pkey_usage_period                              output.o
v3_policy_constraints                             output.o
v3_policy_mappings                                output.o
v3_sinfo                                          output.o
v3_skey_id                                        output.o
v3_sxnet                                          output.o
vcpu_list_foreach                                 output.o
vga_fill_rect                                     output.o
vga_get_screen_size                               output.o
vga_is_ready                                      output.o
vga_register                                      output.o
vga_transfer_image                                output.o
virtio_intr                                       output.o
virtio_net_config_read                            output.o
virtio_net_config_write                           output.o
virtio_net_init                                   output.o
virtio_net_msix                                   output.o
virtio_net_set_msix                               output.o
virtio_net_set_multifunction                      output.o
vmctl_svm_init                                    output.o
vmctl_vt_init                                     output.o
vmm_base_cr3                                      output.o
vmm_main                                          output.o
vmm_start_inf                                     output.o
vmm_start_phys                                    output.o
vmm_term_inf                                      output.o
vmmcall                                           output.o
vmmcall_boot_continue                             output.o
vmmcall_boot_enable                               output.o
vmmcall_init                                      output.o
vmmcall_register                                  output.o
vmmsize                                           output.o
vprintf                                           output.o
vramwrite_clearscreen                             output.o
vramwrite_exit_global                             output.o
vramwrite_get_cursor_pos                          output.o
vramwrite_init_global                             output.o
vramwrite_mark1                                   output.o
vramwrite_mark2                                   output.o
vramwrite_mark3                                   output.o
vramwrite_putchar                                 output.o
vramwrite_restore_cursor                          output.o
vramwrite_save_and_move_cursor                    output.o
vsnprintf                                         output.o
vt__vmx_init                                      output.o
vt__vmxon                                         output.o
vt_add_guest_msr                                  output.o
vt_available                                      output.o
vt_enable_resume                                  output.o
vt_ept_clear_all                                  output.o
vt_ept_extern_mapsearch                           output.o
vt_ept_init                                       output.o
vt_ept_map_1mb                                    output.o
vt_ept_tlbflush                                   output.o
vt_ept_updatecr3                                  output.o
vt_ept_violation                                  output.o
vt_generate_external_int                          output.o
vt_generate_pagefault                             output.o
vt_get_current_regs_in_vmcs                       output.o
vt_get_vmcs_regs_in_vmcs                          output.o
vt_init                                           output.o
vt_init_signal                                    output.o
vt_io                                             output.o
vt_iopass                                         output.o
vt_msr_init                                       output.o
vt_msr_load_process64_msrs                        output.o
vt_msr_own_process_msrs                           output.o
vt_msr_update_lma                                 output.o
vt_msrpass                                        output.o
vt_paging_apply_fixed_cr0                         output.o
vt_paging_apply_fixed_cr4                         output.o
vt_paging_clear_all                               output.o
vt_paging_extern_flush_tlb_entry                  output.o
vt_paging_flush_guest_tlb                         output.o
vt_paging_get_gpat                                output.o
vt_paging_init                                    output.o
vt_paging_invalidate                              output.o
vt_paging_map_1mb                                 output.o
vt_paging_npf                                     output.o
vt_paging_pagefault                               output.o
vt_paging_pg_change                               output.o
vt_paging_set_gpat                                output.o
vt_paging_spt_setcr3                              output.o
vt_paging_start                                   output.o
vt_paging_tlbflush                                output.o
vt_paging_updatecr3                               output.o
vt_panic_dump                                     output.o
vt_read_control_reg                               output.o
vt_read_flags                                     output.o
vt_read_gdtr                                      output.o
vt_read_general_reg                               output.o
vt_read_guest_msr                                 output.o
vt_read_idtr                                      output.o
vt_read_ip                                        output.o
vt_read_msr                                       output.o
vt_read_sreg_acr                                  output.o
vt_read_sreg_base                                 output.o
vt_read_sreg_limit                                output.o
vt_read_sreg_sel                                  output.o
vt_reset                                          output.o
vt_resume                                         output.o
vt_start_vm                                       output.o
vt_update_exception_bmp                           output.o
vt_update_exint                                   output.o
vt_vmexit                                         output.o
vt_vminit                                         output.o
vt_vmptrld                                        output.o
vt_write_control_reg                              output.o
vt_write_flags                                    output.o
vt_write_gdtr                                     output.o
vt_write_general_reg                              output.o
vt_write_guest_msr                                output.o
vt_write_idtr                                     output.o
vt_write_ip                                       output.o
vt_write_msr                                      output.o
vt_write_realmode_seg                             output.o
vt_writing_sreg                                   output.o
waitcycles                                        output.o
wakeup_cont                                       output.o
wakeup_entry_addr                                 output.o
wakeup_entry_cr0                                  output.o
wakeup_entry_cr3                                  output.o
wakeup_entry_cr4                                  output.o
wakeup_entry_end                                  output.o
wakeup_entry_gdtr                                 output.o
wakeup_entry_start                                output.o
wakeup_init                                       output.o
wakeup_main                                       output.o
whirlpool_block                                   output.o
write_gphys_b                                     output.o
write_gphys_l                                     output.o
write_gphys_q                                     output.o
write_gphys_w                                     output.o
write_hphys_b                                     output.o
write_hphys_l                                     output.o
write_hphys_q                                     output.o
write_hphys_w                                     output.o
write_linearaddr_b                                output.o
write_linearaddr_l                                output.o
write_linearaddr_ok_b                             output.o
write_linearaddr_ok_l                             output.o
write_linearaddr_ok_w                             output.o
write_linearaddr_q                                output.o
write_linearaddr_tss                              output.o
write_linearaddr_w                                output.o
x509_name_ff                                      output.o
xhci_append_h_urb_to_ep                           output.o
xhci_check_urb_advance                            output.o
xhci_construct_gurbs                              output.o
xhci_create_shadow_erst                           output.o
xhci_deactivate_urb                               output.o
xhci_ep0_copyback                                 output.o
xhci_ep0_shadowing                                output.o
xhci_hand_eps_back_to_guest                       output.o
xhci_hc_reset                                     output.o
xhci_init                                         output.o
xhci_process_cmd_trb                              output.o
xhci_set_no_data_trb_hook                         output.o
xhci_shadow_g_urb                                 output.o
xhci_shadow_trbs                                  output.o
xhci_submit_bulk                                  output.o
xhci_submit_control                               output.o
xhci_submit_interrupt                             output.o
xhci_sync_state                                   output.o
xhci_unmap_guest_erst                             output.o
xhci_update_er_and_dev_ctx                        output.o
